   1               		.file	"Endpoint.c"
   2               	__SP_H__ = 0x3e
   3               	__SP_L__ = 0x3d
   4               	__SREG__ = 0x3f
   5               	__tmp_reg__ = 0
   6               	__zero_reg__ = 1
   7               		.text
   8               	.Ltext0:
   9               		.cfi_sections	.debug_frame
  10               		.section	.text.Endpoint_BytesToEPSizeMaskDynamic,"ax",@progbits
  11               	.global	Endpoint_BytesToEPSizeMaskDynamic
  13               	Endpoint_BytesToEPSizeMaskDynamic:
  14               	.LFB64:
  15               		.file 1 "../../LUFA/Drivers/USB/LowLevel/Endpoint.c"
   1:../../LUFA/Drivers/USB/LowLevel/Endpoint.c **** /*
   2:../../LUFA/Drivers/USB/LowLevel/Endpoint.c ****              LUFA Library
   3:../../LUFA/Drivers/USB/LowLevel/Endpoint.c ****      Copyright (C) Dean Camera, 2010.
   4:../../LUFA/Drivers/USB/LowLevel/Endpoint.c ****               
   5:../../LUFA/Drivers/USB/LowLevel/Endpoint.c ****   dean [at] fourwalledcubicle [dot] com
   6:../../LUFA/Drivers/USB/LowLevel/Endpoint.c ****       www.fourwalledcubicle.com
   7:../../LUFA/Drivers/USB/LowLevel/Endpoint.c **** */
   8:../../LUFA/Drivers/USB/LowLevel/Endpoint.c **** 
   9:../../LUFA/Drivers/USB/LowLevel/Endpoint.c **** /*
  10:../../LUFA/Drivers/USB/LowLevel/Endpoint.c ****   Copyright 2010  Dean Camera (dean [at] fourwalledcubicle [dot] com)
  11:../../LUFA/Drivers/USB/LowLevel/Endpoint.c **** 
  12:../../LUFA/Drivers/USB/LowLevel/Endpoint.c ****   Permission to use, copy, modify, distribute, and sell this 
  13:../../LUFA/Drivers/USB/LowLevel/Endpoint.c ****   software and its documentation for any purpose is hereby granted
  14:../../LUFA/Drivers/USB/LowLevel/Endpoint.c ****   without fee, provided that the above copyright notice appear in 
  15:../../LUFA/Drivers/USB/LowLevel/Endpoint.c ****   all copies and that both that the copyright notice and this
  16:../../LUFA/Drivers/USB/LowLevel/Endpoint.c ****   permission notice and warranty disclaimer appear in supporting 
  17:../../LUFA/Drivers/USB/LowLevel/Endpoint.c ****   documentation, and that the name of the author not be used in 
  18:../../LUFA/Drivers/USB/LowLevel/Endpoint.c ****   advertising or publicity pertaining to distribution of the 
  19:../../LUFA/Drivers/USB/LowLevel/Endpoint.c ****   software without specific, written prior permission.
  20:../../LUFA/Drivers/USB/LowLevel/Endpoint.c **** 
  21:../../LUFA/Drivers/USB/LowLevel/Endpoint.c ****   The author disclaim all warranties with regard to this
  22:../../LUFA/Drivers/USB/LowLevel/Endpoint.c ****   software, including all implied warranties of merchantability
  23:../../LUFA/Drivers/USB/LowLevel/Endpoint.c ****   and fitness.  In no event shall the author be liable for any
  24:../../LUFA/Drivers/USB/LowLevel/Endpoint.c ****   special, indirect or consequential damages or any damages
  25:../../LUFA/Drivers/USB/LowLevel/Endpoint.c ****   whatsoever resulting from loss of use, data or profits, whether
  26:../../LUFA/Drivers/USB/LowLevel/Endpoint.c ****   in an action of contract, negligence or other tortious action,
  27:../../LUFA/Drivers/USB/LowLevel/Endpoint.c ****   arising out of or in connection with the use or performance of
  28:../../LUFA/Drivers/USB/LowLevel/Endpoint.c ****   this software.
  29:../../LUFA/Drivers/USB/LowLevel/Endpoint.c **** */
  30:../../LUFA/Drivers/USB/LowLevel/Endpoint.c **** 
  31:../../LUFA/Drivers/USB/LowLevel/Endpoint.c **** #define  __INCLUDE_FROM_USB_DRIVER
  32:../../LUFA/Drivers/USB/LowLevel/Endpoint.c **** #include "../HighLevel/USBMode.h"
  33:../../LUFA/Drivers/USB/LowLevel/Endpoint.c **** 
  34:../../LUFA/Drivers/USB/LowLevel/Endpoint.c **** #if defined(USB_CAN_BE_DEVICE)
  35:../../LUFA/Drivers/USB/LowLevel/Endpoint.c **** 
  36:../../LUFA/Drivers/USB/LowLevel/Endpoint.c **** #define  __INCLUDE_FROM_ENDPOINT_C
  37:../../LUFA/Drivers/USB/LowLevel/Endpoint.c **** #include "Endpoint.h"
  38:../../LUFA/Drivers/USB/LowLevel/Endpoint.c **** 
  39:../../LUFA/Drivers/USB/LowLevel/Endpoint.c **** #if !defined(FIXED_CONTROL_ENDPOINT_SIZE)
  40:../../LUFA/Drivers/USB/LowLevel/Endpoint.c **** uint8_t USB_ControlEndpointSize = ENDPOINT_CONTROLEP_DEFAULT_SIZE;
  41:../../LUFA/Drivers/USB/LowLevel/Endpoint.c **** #endif
  42:../../LUFA/Drivers/USB/LowLevel/Endpoint.c **** 
  43:../../LUFA/Drivers/USB/LowLevel/Endpoint.c **** uint8_t Endpoint_BytesToEPSizeMaskDynamic(const uint16_t Size)
  44:../../LUFA/Drivers/USB/LowLevel/Endpoint.c **** {
  16               		.loc 1 44 0
  17               		.cfi_startproc
  18               	.LVL0:
  19               	/* prologue: function */
  20               	/* frame size = 0 */
  21               	/* stack size = 0 */
  22               	.L__stack_usage = 0
  23 0000 AC01      		movw r20,r24
  24               	.LVL1:
  25               	.LBB259:
  26               	.LBB260:
  27               		.file 2 "../../LUFA/Drivers/USB/LowLevel/Endpoint.h"
   1:../../LUFA/Drivers/USB/LowLevel/Endpoint.h **** /*
   2:../../LUFA/Drivers/USB/LowLevel/Endpoint.h ****              LUFA Library
   3:../../LUFA/Drivers/USB/LowLevel/Endpoint.h ****      Copyright (C) Dean Camera, 2010.
   4:../../LUFA/Drivers/USB/LowLevel/Endpoint.h ****               
   5:../../LUFA/Drivers/USB/LowLevel/Endpoint.h ****   dean [at] fourwalledcubicle [dot] com
   6:../../LUFA/Drivers/USB/LowLevel/Endpoint.h ****       www.fourwalledcubicle.com
   7:../../LUFA/Drivers/USB/LowLevel/Endpoint.h **** */
   8:../../LUFA/Drivers/USB/LowLevel/Endpoint.h **** 
   9:../../LUFA/Drivers/USB/LowLevel/Endpoint.h **** /*
  10:../../LUFA/Drivers/USB/LowLevel/Endpoint.h ****   Copyright 2010  Dean Camera (dean [at] fourwalledcubicle [dot] com)
  11:../../LUFA/Drivers/USB/LowLevel/Endpoint.h **** 
  12:../../LUFA/Drivers/USB/LowLevel/Endpoint.h ****   Permission to use, copy, modify, distribute, and sell this 
  13:../../LUFA/Drivers/USB/LowLevel/Endpoint.h ****   software and its documentation for any purpose is hereby granted
  14:../../LUFA/Drivers/USB/LowLevel/Endpoint.h ****   without fee, provided that the above copyright notice appear in 
  15:../../LUFA/Drivers/USB/LowLevel/Endpoint.h ****   all copies and that both that the copyright notice and this
  16:../../LUFA/Drivers/USB/LowLevel/Endpoint.h ****   permission notice and warranty disclaimer appear in supporting 
  17:../../LUFA/Drivers/USB/LowLevel/Endpoint.h ****   documentation, and that the name of the author not be used in 
  18:../../LUFA/Drivers/USB/LowLevel/Endpoint.h ****   advertising or publicity pertaining to distribution of the 
  19:../../LUFA/Drivers/USB/LowLevel/Endpoint.h ****   software without specific, written prior permission.
  20:../../LUFA/Drivers/USB/LowLevel/Endpoint.h **** 
  21:../../LUFA/Drivers/USB/LowLevel/Endpoint.h ****   The author disclaim all warranties with regard to this
  22:../../LUFA/Drivers/USB/LowLevel/Endpoint.h ****   software, including all implied warranties of merchantability
  23:../../LUFA/Drivers/USB/LowLevel/Endpoint.h ****   and fitness.  In no event shall the author be liable for any
  24:../../LUFA/Drivers/USB/LowLevel/Endpoint.h ****   special, indirect or consequential damages or any damages
  25:../../LUFA/Drivers/USB/LowLevel/Endpoint.h ****   whatsoever resulting from loss of use, data or profits, whether
  26:../../LUFA/Drivers/USB/LowLevel/Endpoint.h ****   in an action of contract, negligence or other tortious action,
  27:../../LUFA/Drivers/USB/LowLevel/Endpoint.h ****   arising out of or in connection with the use or performance of
  28:../../LUFA/Drivers/USB/LowLevel/Endpoint.h ****   this software.
  29:../../LUFA/Drivers/USB/LowLevel/Endpoint.h **** */
  30:../../LUFA/Drivers/USB/LowLevel/Endpoint.h **** 
  31:../../LUFA/Drivers/USB/LowLevel/Endpoint.h **** /** \file
  32:../../LUFA/Drivers/USB/LowLevel/Endpoint.h ****  *  \brief USB device endpoint management definitions.
  33:../../LUFA/Drivers/USB/LowLevel/Endpoint.h ****  *
  34:../../LUFA/Drivers/USB/LowLevel/Endpoint.h ****  *  This file contains structures, function prototypes and macros related to the management of the 
  35:../../LUFA/Drivers/USB/LowLevel/Endpoint.h ****  *  data endpoints when the library is initialized in USB device mode.
  36:../../LUFA/Drivers/USB/LowLevel/Endpoint.h ****  *
  37:../../LUFA/Drivers/USB/LowLevel/Endpoint.h ****  *  \note This file should not be included directly. It is automatically included as needed by the 
  38:../../LUFA/Drivers/USB/LowLevel/Endpoint.h ****  *        dispatch header located in LUFA/Drivers/USB/USB.h.
  39:../../LUFA/Drivers/USB/LowLevel/Endpoint.h ****  */
  40:../../LUFA/Drivers/USB/LowLevel/Endpoint.h **** 
  41:../../LUFA/Drivers/USB/LowLevel/Endpoint.h **** /** \ingroup Group_USB
  42:../../LUFA/Drivers/USB/LowLevel/Endpoint.h ****  *  @defgroup Group_EndpointManagement Endpoint Management
  43:../../LUFA/Drivers/USB/LowLevel/Endpoint.h ****  *
  44:../../LUFA/Drivers/USB/LowLevel/Endpoint.h ****  *  Functions, macros and enums related to endpoint management when in USB Device mode. This
  45:../../LUFA/Drivers/USB/LowLevel/Endpoint.h ****  *  module contains the endpoint management macros, as well as endpoint interrupt and data
  46:../../LUFA/Drivers/USB/LowLevel/Endpoint.h ****  *  send/receive functions for various data types.
  47:../../LUFA/Drivers/USB/LowLevel/Endpoint.h ****  *
  48:../../LUFA/Drivers/USB/LowLevel/Endpoint.h ****  *  @{
  49:../../LUFA/Drivers/USB/LowLevel/Endpoint.h ****  */
  50:../../LUFA/Drivers/USB/LowLevel/Endpoint.h **** 
  51:../../LUFA/Drivers/USB/LowLevel/Endpoint.h **** /** @defgroup Group_EndpointRW Endpoint Data Reading and Writing
  52:../../LUFA/Drivers/USB/LowLevel/Endpoint.h ****  *
  53:../../LUFA/Drivers/USB/LowLevel/Endpoint.h ****  *  Functions, macros, variables, enums and types related to data reading and writing from and to e
  54:../../LUFA/Drivers/USB/LowLevel/Endpoint.h ****  */
  55:../../LUFA/Drivers/USB/LowLevel/Endpoint.h ****  
  56:../../LUFA/Drivers/USB/LowLevel/Endpoint.h **** /** \ingroup Group_EndpointRW  
  57:../../LUFA/Drivers/USB/LowLevel/Endpoint.h ****  *  @defgroup Group_EndpointPrimitiveRW Read/Write of Primitive Data Types
  58:../../LUFA/Drivers/USB/LowLevel/Endpoint.h ****  *
  59:../../LUFA/Drivers/USB/LowLevel/Endpoint.h ****  *  Functions, macros, variables, enums and types related to data reading and writing of primitive 
  60:../../LUFA/Drivers/USB/LowLevel/Endpoint.h ****  *  from and to endpoints.
  61:../../LUFA/Drivers/USB/LowLevel/Endpoint.h ****  */ 
  62:../../LUFA/Drivers/USB/LowLevel/Endpoint.h **** 
  63:../../LUFA/Drivers/USB/LowLevel/Endpoint.h **** /** \ingroup Group_EndpointRW  
  64:../../LUFA/Drivers/USB/LowLevel/Endpoint.h ****  *  @defgroup Group_EndpointStreamRW Read/Write of Multi-Byte Streams
  65:../../LUFA/Drivers/USB/LowLevel/Endpoint.h ****  *
  66:../../LUFA/Drivers/USB/LowLevel/Endpoint.h ****  *  Functions, macros, variables, enums and types related to data reading and writing of data strea
  67:../../LUFA/Drivers/USB/LowLevel/Endpoint.h ****  *  and to endpoints.
  68:../../LUFA/Drivers/USB/LowLevel/Endpoint.h ****  */ 
  69:../../LUFA/Drivers/USB/LowLevel/Endpoint.h **** 
  70:../../LUFA/Drivers/USB/LowLevel/Endpoint.h **** /** @defgroup Group_EndpointPacketManagement Endpoint Packet Management
  71:../../LUFA/Drivers/USB/LowLevel/Endpoint.h ****  *
  72:../../LUFA/Drivers/USB/LowLevel/Endpoint.h ****  *  Functions, macros, variables, enums and types related to packet management of endpoints.
  73:../../LUFA/Drivers/USB/LowLevel/Endpoint.h ****  */
  74:../../LUFA/Drivers/USB/LowLevel/Endpoint.h **** 
  75:../../LUFA/Drivers/USB/LowLevel/Endpoint.h **** #ifndef __ENDPOINT_H__
  76:../../LUFA/Drivers/USB/LowLevel/Endpoint.h **** #define __ENDPOINT_H__
  77:../../LUFA/Drivers/USB/LowLevel/Endpoint.h **** 
  78:../../LUFA/Drivers/USB/LowLevel/Endpoint.h **** 	/* Includes: */
  79:../../LUFA/Drivers/USB/LowLevel/Endpoint.h **** 		#include <avr/io.h>
  80:../../LUFA/Drivers/USB/LowLevel/Endpoint.h **** 		#include <avr/pgmspace.h>
  81:../../LUFA/Drivers/USB/LowLevel/Endpoint.h **** 		#include <avr/eeprom.h>
  82:../../LUFA/Drivers/USB/LowLevel/Endpoint.h **** 		#include <stdbool.h>
  83:../../LUFA/Drivers/USB/LowLevel/Endpoint.h **** 
  84:../../LUFA/Drivers/USB/LowLevel/Endpoint.h **** 		#include "../../../Common/Common.h"
  85:../../LUFA/Drivers/USB/LowLevel/Endpoint.h **** 		#include "../HighLevel/USBTask.h"
  86:../../LUFA/Drivers/USB/LowLevel/Endpoint.h **** 		#include "USBInterrupt.h"
  87:../../LUFA/Drivers/USB/LowLevel/Endpoint.h **** 
  88:../../LUFA/Drivers/USB/LowLevel/Endpoint.h **** 		#if !defined(NO_STREAM_CALLBACKS) || defined(__DOXYGEN__)
  89:../../LUFA/Drivers/USB/LowLevel/Endpoint.h **** 			#include "../HighLevel/StreamCallbacks.h"
  90:../../LUFA/Drivers/USB/LowLevel/Endpoint.h **** 		#endif
  91:../../LUFA/Drivers/USB/LowLevel/Endpoint.h **** 		
  92:../../LUFA/Drivers/USB/LowLevel/Endpoint.h **** 	/* Enable C linkage for C++ Compilers: */
  93:../../LUFA/Drivers/USB/LowLevel/Endpoint.h **** 		#if defined(__cplusplus)
  94:../../LUFA/Drivers/USB/LowLevel/Endpoint.h **** 			extern "C" {
  95:../../LUFA/Drivers/USB/LowLevel/Endpoint.h **** 		#endif
  96:../../LUFA/Drivers/USB/LowLevel/Endpoint.h **** 
  97:../../LUFA/Drivers/USB/LowLevel/Endpoint.h **** 	/* Preprocessor Checks: */
  98:../../LUFA/Drivers/USB/LowLevel/Endpoint.h **** 		#if !defined(__INCLUDE_FROM_USB_DRIVER)
  99:../../LUFA/Drivers/USB/LowLevel/Endpoint.h **** 			#error Do not include this file directly. Include LUFA/Drivers/USB/USB.h instead.
 100:../../LUFA/Drivers/USB/LowLevel/Endpoint.h **** 		#endif
 101:../../LUFA/Drivers/USB/LowLevel/Endpoint.h **** 		
 102:../../LUFA/Drivers/USB/LowLevel/Endpoint.h **** 	/* Public Interface - May be used in end-application: */
 103:../../LUFA/Drivers/USB/LowLevel/Endpoint.h **** 		/* Macros: */
 104:../../LUFA/Drivers/USB/LowLevel/Endpoint.h **** 			/** Endpoint data direction mask for \ref Endpoint_ConfigureEndpoint(). This indicates that the 
 105:../../LUFA/Drivers/USB/LowLevel/Endpoint.h **** 			 *  should be initialized in the OUT direction - i.e. data flows from host to device.
 106:../../LUFA/Drivers/USB/LowLevel/Endpoint.h **** 			 */
 107:../../LUFA/Drivers/USB/LowLevel/Endpoint.h **** 			#define ENDPOINT_DIR_OUT                      (0 << EPDIR)
 108:../../LUFA/Drivers/USB/LowLevel/Endpoint.h **** 
 109:../../LUFA/Drivers/USB/LowLevel/Endpoint.h **** 			/** Endpoint data direction mask for \ref Endpoint_ConfigureEndpoint(). This indicates that the 
 110:../../LUFA/Drivers/USB/LowLevel/Endpoint.h **** 			 *  should be initialized in the IN direction - i.e. data flows from device to host.
 111:../../LUFA/Drivers/USB/LowLevel/Endpoint.h **** 			 */
 112:../../LUFA/Drivers/USB/LowLevel/Endpoint.h **** 			#define ENDPOINT_DIR_IN                       (1 << EPDIR)
 113:../../LUFA/Drivers/USB/LowLevel/Endpoint.h **** 
 114:../../LUFA/Drivers/USB/LowLevel/Endpoint.h **** 			/** Mask for the bank mode selection for the \ref Endpoint_ConfigureEndpoint() macro. This indic
 115:../../LUFA/Drivers/USB/LowLevel/Endpoint.h **** 			 *  that the endpoint should have one single bank, which requires less USB FIFO memory but resul
 116:../../LUFA/Drivers/USB/LowLevel/Endpoint.h **** 			 *  in slower transfers as only one USB device (the AVR or the host) can access the endpoint's
 117:../../LUFA/Drivers/USB/LowLevel/Endpoint.h **** 			 *  bank at the one time.
 118:../../LUFA/Drivers/USB/LowLevel/Endpoint.h **** 			 */
 119:../../LUFA/Drivers/USB/LowLevel/Endpoint.h **** 			#define ENDPOINT_BANK_SINGLE                  (0 << EPBK0)
 120:../../LUFA/Drivers/USB/LowLevel/Endpoint.h **** 
 121:../../LUFA/Drivers/USB/LowLevel/Endpoint.h **** 			/** Mask for the bank mode selection for the \ref Endpoint_ConfigureEndpoint() macro. This indic
 122:../../LUFA/Drivers/USB/LowLevel/Endpoint.h **** 			 *  that the endpoint should have two banks, which requires more USB FIFO memory but results
 123:../../LUFA/Drivers/USB/LowLevel/Endpoint.h **** 			 *  in faster transfers as one USB device (the AVR or the host) can access one bank while the ot
 124:../../LUFA/Drivers/USB/LowLevel/Endpoint.h **** 			 *  accesses the second bank.
 125:../../LUFA/Drivers/USB/LowLevel/Endpoint.h **** 			 */
 126:../../LUFA/Drivers/USB/LowLevel/Endpoint.h **** 			#define ENDPOINT_BANK_DOUBLE                  (1 << EPBK0)
 127:../../LUFA/Drivers/USB/LowLevel/Endpoint.h **** 			
 128:../../LUFA/Drivers/USB/LowLevel/Endpoint.h **** 			/** Endpoint address for the default control endpoint, which always resides in address 0. This i
 129:../../LUFA/Drivers/USB/LowLevel/Endpoint.h **** 			 *  defined for convenience to give more readable code when used with the endpoint macros.
 130:../../LUFA/Drivers/USB/LowLevel/Endpoint.h **** 			 */
 131:../../LUFA/Drivers/USB/LowLevel/Endpoint.h **** 			#define ENDPOINT_CONTROLEP                    0
 132:../../LUFA/Drivers/USB/LowLevel/Endpoint.h **** 
 133:../../LUFA/Drivers/USB/LowLevel/Endpoint.h **** 			#if (!defined(FIXED_CONTROL_ENDPOINT_SIZE) || defined(__DOXYGEN__))
 134:../../LUFA/Drivers/USB/LowLevel/Endpoint.h **** 				/** Default size of the default control endpoint's bank, until altered by the control endpoint 
 135:../../LUFA/Drivers/USB/LowLevel/Endpoint.h **** 				 *  value in the device descriptor. Not available if the FIXED_CONTROL_ENDPOINT_SIZE token is d
 136:../../LUFA/Drivers/USB/LowLevel/Endpoint.h **** 				 */
 137:../../LUFA/Drivers/USB/LowLevel/Endpoint.h **** 				#define ENDPOINT_CONTROLEP_DEFAULT_SIZE   8
 138:../../LUFA/Drivers/USB/LowLevel/Endpoint.h **** 			#endif
 139:../../LUFA/Drivers/USB/LowLevel/Endpoint.h **** 			
 140:../../LUFA/Drivers/USB/LowLevel/Endpoint.h **** 			/** Endpoint number mask, for masking against endpoint addresses to retrieve the endpoint's
 141:../../LUFA/Drivers/USB/LowLevel/Endpoint.h **** 			 *  numerical address in the device.
 142:../../LUFA/Drivers/USB/LowLevel/Endpoint.h **** 			 */
 143:../../LUFA/Drivers/USB/LowLevel/Endpoint.h **** 			#define ENDPOINT_EPNUM_MASK                   0x07
 144:../../LUFA/Drivers/USB/LowLevel/Endpoint.h **** 
 145:../../LUFA/Drivers/USB/LowLevel/Endpoint.h **** 			/** Endpoint direction mask, for masking against endpoint addresses to retrieve the endpoint's
 146:../../LUFA/Drivers/USB/LowLevel/Endpoint.h **** 			 *  direction for comparing with the ENDPOINT_DESCRIPTOR_DIR_* masks.
 147:../../LUFA/Drivers/USB/LowLevel/Endpoint.h **** 			 */
 148:../../LUFA/Drivers/USB/LowLevel/Endpoint.h **** 			#define ENDPOINT_EPDIR_MASK                   0x80
 149:../../LUFA/Drivers/USB/LowLevel/Endpoint.h **** 
 150:../../LUFA/Drivers/USB/LowLevel/Endpoint.h **** 			/** Endpoint bank size mask, for masking against endpoint addresses to retrieve the endpoint's
 151:../../LUFA/Drivers/USB/LowLevel/Endpoint.h **** 			 *  bank size in the device.
 152:../../LUFA/Drivers/USB/LowLevel/Endpoint.h **** 			 */
 153:../../LUFA/Drivers/USB/LowLevel/Endpoint.h **** 			#define ENDPOINT_EPSIZE_MASK                  0x7F
 154:../../LUFA/Drivers/USB/LowLevel/Endpoint.h **** 			
 155:../../LUFA/Drivers/USB/LowLevel/Endpoint.h **** 			/** Maximum size in bytes of a given endpoint.
 156:../../LUFA/Drivers/USB/LowLevel/Endpoint.h **** 			 *
 157:../../LUFA/Drivers/USB/LowLevel/Endpoint.h **** 			 *  \param[in] n  Endpoint number, a value between 0 and (ENDPOINT_TOTAL_ENDPOINTS - 1)
 158:../../LUFA/Drivers/USB/LowLevel/Endpoint.h **** 			 */				
 159:../../LUFA/Drivers/USB/LowLevel/Endpoint.h **** 			#define ENDPOINT_MAX_SIZE(n)                  _ENDPOINT_GET_MAXSIZE(n)
 160:../../LUFA/Drivers/USB/LowLevel/Endpoint.h **** 
 161:../../LUFA/Drivers/USB/LowLevel/Endpoint.h **** 			/** Indicates if the given endpoint supports double banking.
 162:../../LUFA/Drivers/USB/LowLevel/Endpoint.h **** 			 *
 163:../../LUFA/Drivers/USB/LowLevel/Endpoint.h **** 			 *  \param[in] n  Endpoint number, a value between 0 and (ENDPOINT_TOTAL_ENDPOINTS - 1)
 164:../../LUFA/Drivers/USB/LowLevel/Endpoint.h **** 			 */				
 165:../../LUFA/Drivers/USB/LowLevel/Endpoint.h **** 			#define ENDPOINT_DOUBLEBANK_SUPPORTED(n)      _ENDPOINT_GET_DOUBLEBANK(n)
 166:../../LUFA/Drivers/USB/LowLevel/Endpoint.h **** 
 167:../../LUFA/Drivers/USB/LowLevel/Endpoint.h **** 			#if !defined(CONTROL_ONLY_DEVICE)
 168:../../LUFA/Drivers/USB/LowLevel/Endpoint.h **** 				#if defined(USB_SERIES_4_AVR) || defined(USB_SERIES_6_AVR) || defined(USB_SERIES_7_AVR) || defi
 169:../../LUFA/Drivers/USB/LowLevel/Endpoint.h **** 					/** Total number of endpoints (including the default control endpoint at address 0) which may
 170:../../LUFA/Drivers/USB/LowLevel/Endpoint.h **** 					 *  be used in the device. Different USB AVR models support different amounts of endpoints,
 171:../../LUFA/Drivers/USB/LowLevel/Endpoint.h **** 					 *  this value reflects the maximum number of endpoints for the currently selected AVR model.
 172:../../LUFA/Drivers/USB/LowLevel/Endpoint.h **** 					 */
 173:../../LUFA/Drivers/USB/LowLevel/Endpoint.h **** 					#define ENDPOINT_TOTAL_ENDPOINTS      7
 174:../../LUFA/Drivers/USB/LowLevel/Endpoint.h **** 				#else
 175:../../LUFA/Drivers/USB/LowLevel/Endpoint.h **** 					#define ENDPOINT_TOTAL_ENDPOINTS      5
 176:../../LUFA/Drivers/USB/LowLevel/Endpoint.h **** 				#endif
 177:../../LUFA/Drivers/USB/LowLevel/Endpoint.h **** 			#else
 178:../../LUFA/Drivers/USB/LowLevel/Endpoint.h **** 				#define ENDPOINT_TOTAL_ENDPOINTS          1
 179:../../LUFA/Drivers/USB/LowLevel/Endpoint.h **** 			#endif
 180:../../LUFA/Drivers/USB/LowLevel/Endpoint.h **** 
 181:../../LUFA/Drivers/USB/LowLevel/Endpoint.h **** 		/* Enums: */
 182:../../LUFA/Drivers/USB/LowLevel/Endpoint.h **** 			/** Enum for the possible error return codes of the \ref Endpoint_WaitUntilReady() function.
 183:../../LUFA/Drivers/USB/LowLevel/Endpoint.h **** 			 *
 184:../../LUFA/Drivers/USB/LowLevel/Endpoint.h **** 			 *  \ingroup Group_EndpointRW
 185:../../LUFA/Drivers/USB/LowLevel/Endpoint.h **** 			 */
 186:../../LUFA/Drivers/USB/LowLevel/Endpoint.h **** 			enum Endpoint_WaitUntilReady_ErrorCodes_t
 187:../../LUFA/Drivers/USB/LowLevel/Endpoint.h **** 			{
 188:../../LUFA/Drivers/USB/LowLevel/Endpoint.h **** 				ENDPOINT_READYWAIT_NoError                 = 0, /**< Endpoint is ready for next packet, no erro
 189:../../LUFA/Drivers/USB/LowLevel/Endpoint.h **** 				ENDPOINT_READYWAIT_EndpointStalled         = 1, /**< The endpoint was stalled during the stream
 190:../../LUFA/Drivers/USB/LowLevel/Endpoint.h **** 				                                                 *   transfer by the host or device.
 191:../../LUFA/Drivers/USB/LowLevel/Endpoint.h **** 				                                                 */
 192:../../LUFA/Drivers/USB/LowLevel/Endpoint.h **** 				ENDPOINT_READYWAIT_DeviceDisconnected      = 2,	/**< Device was disconnected from the host whil
 193:../../LUFA/Drivers/USB/LowLevel/Endpoint.h **** 				                                                 *   waiting for the endpoint to become ready.
 194:../../LUFA/Drivers/USB/LowLevel/Endpoint.h **** 				                                                 */
 195:../../LUFA/Drivers/USB/LowLevel/Endpoint.h **** 				ENDPOINT_READYWAIT_BusSuspended            = 3, /**< The USB bus has been suspended by the host
 196:../../LUFA/Drivers/USB/LowLevel/Endpoint.h **** 				                                                 *   no USB endpoint traffic can occur until th
 197:../../LUFA/Drivers/USB/LowLevel/Endpoint.h **** 				                                                 *   has resumed.
 198:../../LUFA/Drivers/USB/LowLevel/Endpoint.h **** 				                                                 */
 199:../../LUFA/Drivers/USB/LowLevel/Endpoint.h **** 				ENDPOINT_READYWAIT_Timeout                 = 4, /**< The host failed to accept or send the next
 200:../../LUFA/Drivers/USB/LowLevel/Endpoint.h **** 				                                                 *   within the software timeout period set by 
 201:../../LUFA/Drivers/USB/LowLevel/Endpoint.h **** 				                                                 *   \ref USB_STREAM_TIMEOUT_MS macro.
 202:../../LUFA/Drivers/USB/LowLevel/Endpoint.h **** 				                                                 */
 203:../../LUFA/Drivers/USB/LowLevel/Endpoint.h **** 			};
 204:../../LUFA/Drivers/USB/LowLevel/Endpoint.h **** 		
 205:../../LUFA/Drivers/USB/LowLevel/Endpoint.h **** 			/** Enum for the possible error return codes of the Endpoint_*_Stream_* functions.
 206:../../LUFA/Drivers/USB/LowLevel/Endpoint.h **** 			 *
 207:../../LUFA/Drivers/USB/LowLevel/Endpoint.h **** 			 *  \ingroup Group_EndpointStreamRW
 208:../../LUFA/Drivers/USB/LowLevel/Endpoint.h **** 			 */
 209:../../LUFA/Drivers/USB/LowLevel/Endpoint.h **** 			enum Endpoint_Stream_RW_ErrorCodes_t
 210:../../LUFA/Drivers/USB/LowLevel/Endpoint.h **** 			{
 211:../../LUFA/Drivers/USB/LowLevel/Endpoint.h **** 				ENDPOINT_RWSTREAM_NoError            = 0, /**< Command completed successfully, no error. */
 212:../../LUFA/Drivers/USB/LowLevel/Endpoint.h **** 				ENDPOINT_RWSTREAM_EndpointStalled    = 1, /**< The endpoint was stalled during the stream
 213:../../LUFA/Drivers/USB/LowLevel/Endpoint.h **** 				                                           *   transfer by the host or device.
 214:../../LUFA/Drivers/USB/LowLevel/Endpoint.h **** 				                                           */
 215:../../LUFA/Drivers/USB/LowLevel/Endpoint.h **** 				ENDPOINT_RWSTREAM_DeviceDisconnected = 2, /**< Device was disconnected from the host during
 216:../../LUFA/Drivers/USB/LowLevel/Endpoint.h **** 				                                           *   the transfer.
 217:../../LUFA/Drivers/USB/LowLevel/Endpoint.h **** 				                                           */
 218:../../LUFA/Drivers/USB/LowLevel/Endpoint.h **** 				ENDPOINT_RWSTREAM_BusSuspended       = 3, /**< The USB bus has been suspended by the host and
 219:../../LUFA/Drivers/USB/LowLevel/Endpoint.h **** 				                                           *   no USB endpoint traffic can occur until the bus
 220:../../LUFA/Drivers/USB/LowLevel/Endpoint.h **** 				                                           *   has resumed.
 221:../../LUFA/Drivers/USB/LowLevel/Endpoint.h **** 				                                           */
 222:../../LUFA/Drivers/USB/LowLevel/Endpoint.h **** 				ENDPOINT_RWSTREAM_Timeout            = 4, /**< The host failed to accept or send the next packe
 223:../../LUFA/Drivers/USB/LowLevel/Endpoint.h **** 				                                           *   within the software timeout period set by the
 224:../../LUFA/Drivers/USB/LowLevel/Endpoint.h **** 				                                           *   \ref USB_STREAM_TIMEOUT_MS macro.
 225:../../LUFA/Drivers/USB/LowLevel/Endpoint.h **** 				                                           */
 226:../../LUFA/Drivers/USB/LowLevel/Endpoint.h **** 				ENDPOINT_RWSTREAM_CallbackAborted    = 5, /**< Indicates that the stream's callback function
 227:../../LUFA/Drivers/USB/LowLevel/Endpoint.h **** 			                                               *   aborted the transfer early.
 228:../../LUFA/Drivers/USB/LowLevel/Endpoint.h **** 				                                           */
 229:../../LUFA/Drivers/USB/LowLevel/Endpoint.h **** 			};
 230:../../LUFA/Drivers/USB/LowLevel/Endpoint.h **** 			
 231:../../LUFA/Drivers/USB/LowLevel/Endpoint.h **** 			/** Enum for the possible error return codes of the Endpoint_*_Control_Stream_* functions..
 232:../../LUFA/Drivers/USB/LowLevel/Endpoint.h **** 			 *
 233:../../LUFA/Drivers/USB/LowLevel/Endpoint.h **** 			 *  \ingroup Group_EndpointStreamRW
 234:../../LUFA/Drivers/USB/LowLevel/Endpoint.h **** 			 */
 235:../../LUFA/Drivers/USB/LowLevel/Endpoint.h **** 			enum Endpoint_ControlStream_RW_ErrorCodes_t
 236:../../LUFA/Drivers/USB/LowLevel/Endpoint.h **** 			{
 237:../../LUFA/Drivers/USB/LowLevel/Endpoint.h **** 				ENDPOINT_RWCSTREAM_NoError            = 0, /**< Command completed successfully, no error. */
 238:../../LUFA/Drivers/USB/LowLevel/Endpoint.h **** 				ENDPOINT_RWCSTREAM_HostAborted        = 1, /**< The aborted the transfer prematurely. */
 239:../../LUFA/Drivers/USB/LowLevel/Endpoint.h **** 				ENDPOINT_RWCSTREAM_DeviceDisconnected = 2, /**< Device was disconnected from the host during
 240:../../LUFA/Drivers/USB/LowLevel/Endpoint.h **** 				                                            *   the transfer.
 241:../../LUFA/Drivers/USB/LowLevel/Endpoint.h **** 				                                            */
 242:../../LUFA/Drivers/USB/LowLevel/Endpoint.h **** 				ENDPOINT_RWCSTREAM_BusSuspended       = 3, /**< The USB bus has been suspended by the host and
 243:../../LUFA/Drivers/USB/LowLevel/Endpoint.h **** 				                                            *   no USB endpoint traffic can occur until the bus
 244:../../LUFA/Drivers/USB/LowLevel/Endpoint.h **** 				                                            *   has resumed.
 245:../../LUFA/Drivers/USB/LowLevel/Endpoint.h **** 				                                            */
 246:../../LUFA/Drivers/USB/LowLevel/Endpoint.h **** 			};
 247:../../LUFA/Drivers/USB/LowLevel/Endpoint.h **** 
 248:../../LUFA/Drivers/USB/LowLevel/Endpoint.h **** 		/* Inline Functions: */
 249:../../LUFA/Drivers/USB/LowLevel/Endpoint.h **** 			/** Indicates the number of bytes currently stored in the current endpoint's selected bank.
 250:../../LUFA/Drivers/USB/LowLevel/Endpoint.h **** 			 *
 251:../../LUFA/Drivers/USB/LowLevel/Endpoint.h **** 			 *  \note The return width of this function may differ, depending on the maximum endpoint bank s
 252:../../LUFA/Drivers/USB/LowLevel/Endpoint.h **** 			 *        of the selected AVR model.
 253:../../LUFA/Drivers/USB/LowLevel/Endpoint.h **** 			 *
 254:../../LUFA/Drivers/USB/LowLevel/Endpoint.h **** 			 *  \ingroup Group_EndpointRW
 255:../../LUFA/Drivers/USB/LowLevel/Endpoint.h **** 			 *
 256:../../LUFA/Drivers/USB/LowLevel/Endpoint.h **** 			 *  \return Total number of bytes in the currently selected Endpoint's FIFO buffer.
 257:../../LUFA/Drivers/USB/LowLevel/Endpoint.h **** 			 */
 258:../../LUFA/Drivers/USB/LowLevel/Endpoint.h **** 			static inline uint16_t Endpoint_BytesInEndpoint(void) ATTR_WARN_UNUSED_RESULT ATTR_ALWAYS_INLINE
 259:../../LUFA/Drivers/USB/LowLevel/Endpoint.h **** 			static inline uint16_t Endpoint_BytesInEndpoint(void)
 260:../../LUFA/Drivers/USB/LowLevel/Endpoint.h **** 			{
 261:../../LUFA/Drivers/USB/LowLevel/Endpoint.h **** 				#if defined(USB_SERIES_6_AVR) || defined(USB_SERIES_7_AVR)
 262:../../LUFA/Drivers/USB/LowLevel/Endpoint.h **** 					return UEBCX;
 263:../../LUFA/Drivers/USB/LowLevel/Endpoint.h **** 				#elif defined(USB_SERIES_4_AVR)
 264:../../LUFA/Drivers/USB/LowLevel/Endpoint.h **** 					return (((uint16_t)UEBCHX << 8) | UEBCLX);
 265:../../LUFA/Drivers/USB/LowLevel/Endpoint.h **** 				#elif defined(USB_SERIES_2_AVR)
 266:../../LUFA/Drivers/USB/LowLevel/Endpoint.h **** 					return UEBCLX;
 267:../../LUFA/Drivers/USB/LowLevel/Endpoint.h **** 				#endif
 268:../../LUFA/Drivers/USB/LowLevel/Endpoint.h **** 			}
 269:../../LUFA/Drivers/USB/LowLevel/Endpoint.h **** 		
 270:../../LUFA/Drivers/USB/LowLevel/Endpoint.h **** 			/** Get the endpoint address of the currently selected endpoint. This is typically used to save
 271:../../LUFA/Drivers/USB/LowLevel/Endpoint.h **** 			 *  the currently selected endpoint number so that it can be restored after another endpoint has
 272:../../LUFA/Drivers/USB/LowLevel/Endpoint.h **** 			 *  been manipulated.
 273:../../LUFA/Drivers/USB/LowLevel/Endpoint.h **** 			 *
 274:../../LUFA/Drivers/USB/LowLevel/Endpoint.h **** 			 *  \return Index of the currently selected endpoint.
 275:../../LUFA/Drivers/USB/LowLevel/Endpoint.h **** 			 */
 276:../../LUFA/Drivers/USB/LowLevel/Endpoint.h **** 			static inline uint8_t Endpoint_GetCurrentEndpoint(void) ATTR_WARN_UNUSED_RESULT ATTR_ALWAYS_INLI
 277:../../LUFA/Drivers/USB/LowLevel/Endpoint.h **** 			static inline uint8_t Endpoint_GetCurrentEndpoint(void)
 278:../../LUFA/Drivers/USB/LowLevel/Endpoint.h **** 			{
 279:../../LUFA/Drivers/USB/LowLevel/Endpoint.h **** 				#if !defined(CONTROL_ONLY_DEVICE)
 280:../../LUFA/Drivers/USB/LowLevel/Endpoint.h **** 					return (UENUM & ENDPOINT_EPNUM_MASK);
 281:../../LUFA/Drivers/USB/LowLevel/Endpoint.h **** 				#else
 282:../../LUFA/Drivers/USB/LowLevel/Endpoint.h **** 					return ENDPOINT_CONTROLEP;
 283:../../LUFA/Drivers/USB/LowLevel/Endpoint.h **** 				#endif
 284:../../LUFA/Drivers/USB/LowLevel/Endpoint.h **** 			}
 285:../../LUFA/Drivers/USB/LowLevel/Endpoint.h **** 			
 286:../../LUFA/Drivers/USB/LowLevel/Endpoint.h **** 			/** Selects the given endpoint number. If the address from the device descriptors is used, the
 287:../../LUFA/Drivers/USB/LowLevel/Endpoint.h **** 			 *  value should be masked with the \ref ENDPOINT_EPNUM_MASK constant to extract only the endpoi
 288:../../LUFA/Drivers/USB/LowLevel/Endpoint.h **** 			 *  number (and discarding the endpoint direction bit).
 289:../../LUFA/Drivers/USB/LowLevel/Endpoint.h **** 			 *
 290:../../LUFA/Drivers/USB/LowLevel/Endpoint.h **** 			 *  Any endpoint operations which do not require the endpoint number to be indicated will operat
 291:../../LUFA/Drivers/USB/LowLevel/Endpoint.h **** 			 *  the currently selected endpoint.
 292:../../LUFA/Drivers/USB/LowLevel/Endpoint.h **** 			 *
 293:../../LUFA/Drivers/USB/LowLevel/Endpoint.h **** 			 *  \param[in] EndpointNumber Endpoint number to select.
 294:../../LUFA/Drivers/USB/LowLevel/Endpoint.h **** 			 */
 295:../../LUFA/Drivers/USB/LowLevel/Endpoint.h **** 			static inline void Endpoint_SelectEndpoint(const uint8_t EndpointNumber) ATTR_ALWAYS_INLINE;
 296:../../LUFA/Drivers/USB/LowLevel/Endpoint.h **** 			static inline void Endpoint_SelectEndpoint(const uint8_t EndpointNumber)
 297:../../LUFA/Drivers/USB/LowLevel/Endpoint.h **** 			{
 298:../../LUFA/Drivers/USB/LowLevel/Endpoint.h **** 				#if !defined(CONTROL_ONLY_DEVICE)
 299:../../LUFA/Drivers/USB/LowLevel/Endpoint.h **** 					UENUM = EndpointNumber;
 300:../../LUFA/Drivers/USB/LowLevel/Endpoint.h **** 				#endif			
 301:../../LUFA/Drivers/USB/LowLevel/Endpoint.h **** 			}
 302:../../LUFA/Drivers/USB/LowLevel/Endpoint.h **** 			
 303:../../LUFA/Drivers/USB/LowLevel/Endpoint.h **** 			/** Resets the endpoint bank FIFO. This clears all the endpoint banks and resets the USB control
 304:../../LUFA/Drivers/USB/LowLevel/Endpoint.h **** 			 *  In and Out pointers to the bank's contents.
 305:../../LUFA/Drivers/USB/LowLevel/Endpoint.h **** 			 *
 306:../../LUFA/Drivers/USB/LowLevel/Endpoint.h **** 			 *  \param[in] EndpointNumber Endpoint number whose FIFO buffers are to be reset.
 307:../../LUFA/Drivers/USB/LowLevel/Endpoint.h **** 			 */
 308:../../LUFA/Drivers/USB/LowLevel/Endpoint.h **** 			static inline void Endpoint_ResetFIFO(const uint8_t EndpointNumber) ATTR_ALWAYS_INLINE;
 309:../../LUFA/Drivers/USB/LowLevel/Endpoint.h **** 			static inline void Endpoint_ResetFIFO(const uint8_t EndpointNumber)
 310:../../LUFA/Drivers/USB/LowLevel/Endpoint.h **** 			{
 311:../../LUFA/Drivers/USB/LowLevel/Endpoint.h **** 				UERST = (1 << EndpointNumber);
 312:../../LUFA/Drivers/USB/LowLevel/Endpoint.h **** 				UERST = 0;
 313:../../LUFA/Drivers/USB/LowLevel/Endpoint.h **** 			}
 314:../../LUFA/Drivers/USB/LowLevel/Endpoint.h **** 			
 315:../../LUFA/Drivers/USB/LowLevel/Endpoint.h **** 			/** Enables the currently selected endpoint so that data can be sent and received through it to
 316:../../LUFA/Drivers/USB/LowLevel/Endpoint.h **** 			 *  and from a host.
 317:../../LUFA/Drivers/USB/LowLevel/Endpoint.h **** 			 *
 318:../../LUFA/Drivers/USB/LowLevel/Endpoint.h **** 			 *  \note Endpoints must first be configured properly via \ref Endpoint_ConfigureEndpoint().
 319:../../LUFA/Drivers/USB/LowLevel/Endpoint.h **** 			 */
 320:../../LUFA/Drivers/USB/LowLevel/Endpoint.h **** 			static inline void Endpoint_EnableEndpoint(void) ATTR_ALWAYS_INLINE;
 321:../../LUFA/Drivers/USB/LowLevel/Endpoint.h **** 			static inline void Endpoint_EnableEndpoint(void)
 322:../../LUFA/Drivers/USB/LowLevel/Endpoint.h **** 			{
 323:../../LUFA/Drivers/USB/LowLevel/Endpoint.h **** 				UECONX |= (1 << EPEN);
 324:../../LUFA/Drivers/USB/LowLevel/Endpoint.h **** 			}
 325:../../LUFA/Drivers/USB/LowLevel/Endpoint.h **** 
 326:../../LUFA/Drivers/USB/LowLevel/Endpoint.h **** 			/** Disables the currently selected endpoint so that data cannot be sent and received through it
 327:../../LUFA/Drivers/USB/LowLevel/Endpoint.h **** 			 *  to and from a host.
 328:../../LUFA/Drivers/USB/LowLevel/Endpoint.h **** 			 */
 329:../../LUFA/Drivers/USB/LowLevel/Endpoint.h **** 			static inline void Endpoint_DisableEndpoint(void) ATTR_ALWAYS_INLINE;
 330:../../LUFA/Drivers/USB/LowLevel/Endpoint.h **** 			static inline void Endpoint_DisableEndpoint(void)
 331:../../LUFA/Drivers/USB/LowLevel/Endpoint.h **** 			{
 332:../../LUFA/Drivers/USB/LowLevel/Endpoint.h **** 				UECONX &= ~(1 << EPEN);
 333:../../LUFA/Drivers/USB/LowLevel/Endpoint.h **** 			}
 334:../../LUFA/Drivers/USB/LowLevel/Endpoint.h **** 			
 335:../../LUFA/Drivers/USB/LowLevel/Endpoint.h **** 			/** Determines if the currently selected endpoint is enabled, but not necessarily configured.
 336:../../LUFA/Drivers/USB/LowLevel/Endpoint.h **** 			 *
 337:../../LUFA/Drivers/USB/LowLevel/Endpoint.h **** 			 * \return Boolean True if the currently selected endpoint is enabled, false otherwise.
 338:../../LUFA/Drivers/USB/LowLevel/Endpoint.h **** 			 */
 339:../../LUFA/Drivers/USB/LowLevel/Endpoint.h **** 			static inline bool Endpoint_IsEnabled(void) ATTR_WARN_UNUSED_RESULT ATTR_ALWAYS_INLINE;
 340:../../LUFA/Drivers/USB/LowLevel/Endpoint.h **** 			static inline bool Endpoint_IsEnabled(void)
 341:../../LUFA/Drivers/USB/LowLevel/Endpoint.h **** 			{
 342:../../LUFA/Drivers/USB/LowLevel/Endpoint.h **** 				return ((UECONX & (1 << EPEN)) ? true : false);
 343:../../LUFA/Drivers/USB/LowLevel/Endpoint.h **** 			}
 344:../../LUFA/Drivers/USB/LowLevel/Endpoint.h **** 			
 345:../../LUFA/Drivers/USB/LowLevel/Endpoint.h **** 			/** Determines if the currently selected endpoint may be read from (if data is waiting in the en
 346:../../LUFA/Drivers/USB/LowLevel/Endpoint.h **** 			 *  bank and the endpoint is an OUT direction, or if the bank is not yet full if the endpoint is
 347:../../LUFA/Drivers/USB/LowLevel/Endpoint.h **** 			 *  direction). This function will return false if an error has occurred in the endpoint, if the
 348:../../LUFA/Drivers/USB/LowLevel/Endpoint.h **** 			 *  is an OUT direction and no packet (or an empty packet) has been received, or if the endpoint
 349:../../LUFA/Drivers/USB/LowLevel/Endpoint.h **** 			 *  direction and the endpoint bank is full.
 350:../../LUFA/Drivers/USB/LowLevel/Endpoint.h **** 			 *
 351:../../LUFA/Drivers/USB/LowLevel/Endpoint.h **** 			 *  \ingroup Group_EndpointPacketManagement
 352:../../LUFA/Drivers/USB/LowLevel/Endpoint.h **** 			 *
 353:../../LUFA/Drivers/USB/LowLevel/Endpoint.h **** 			 *  \return Boolean true if the currently selected endpoint may be read from or written to, depe
 354:../../LUFA/Drivers/USB/LowLevel/Endpoint.h **** 			 */
 355:../../LUFA/Drivers/USB/LowLevel/Endpoint.h **** 			static inline bool Endpoint_IsReadWriteAllowed(void) ATTR_WARN_UNUSED_RESULT ATTR_ALWAYS_INLINE;
 356:../../LUFA/Drivers/USB/LowLevel/Endpoint.h **** 			static inline bool Endpoint_IsReadWriteAllowed(void)
 357:../../LUFA/Drivers/USB/LowLevel/Endpoint.h **** 			{
 358:../../LUFA/Drivers/USB/LowLevel/Endpoint.h **** 				return ((UEINTX & (1 << RWAL)) ? true : false);
 359:../../LUFA/Drivers/USB/LowLevel/Endpoint.h **** 			}
 360:../../LUFA/Drivers/USB/LowLevel/Endpoint.h **** 			
 361:../../LUFA/Drivers/USB/LowLevel/Endpoint.h **** 			/** Determines if the currently selected endpoint is configured.
 362:../../LUFA/Drivers/USB/LowLevel/Endpoint.h **** 			 *
 363:../../LUFA/Drivers/USB/LowLevel/Endpoint.h **** 			 *  \return Boolean true if the currently selected endpoint has been configured, false otherwise
 364:../../LUFA/Drivers/USB/LowLevel/Endpoint.h **** 			 */
 365:../../LUFA/Drivers/USB/LowLevel/Endpoint.h **** 			static inline bool Endpoint_IsConfigured(void) ATTR_WARN_UNUSED_RESULT ATTR_ALWAYS_INLINE;
 366:../../LUFA/Drivers/USB/LowLevel/Endpoint.h **** 			static inline bool Endpoint_IsConfigured(void)
 367:../../LUFA/Drivers/USB/LowLevel/Endpoint.h **** 			{
 368:../../LUFA/Drivers/USB/LowLevel/Endpoint.h **** 				return ((UESTA0X & (1 << CFGOK)) ? true : false);
 369:../../LUFA/Drivers/USB/LowLevel/Endpoint.h **** 			}
 370:../../LUFA/Drivers/USB/LowLevel/Endpoint.h **** 			
 371:../../LUFA/Drivers/USB/LowLevel/Endpoint.h **** 			/** Returns a mask indicating which INTERRUPT type endpoints have interrupted - i.e. their
 372:../../LUFA/Drivers/USB/LowLevel/Endpoint.h **** 			 *  interrupt duration has elapsed. Which endpoints have interrupted can be determined by
 373:../../LUFA/Drivers/USB/LowLevel/Endpoint.h **** 			 *  masking the return value against (1 << {Endpoint Number}).
 374:../../LUFA/Drivers/USB/LowLevel/Endpoint.h **** 			 *
 375:../../LUFA/Drivers/USB/LowLevel/Endpoint.h **** 			 *  \return Mask whose bits indicate which endpoints have interrupted.
 376:../../LUFA/Drivers/USB/LowLevel/Endpoint.h **** 			 */
 377:../../LUFA/Drivers/USB/LowLevel/Endpoint.h **** 			static inline uint8_t Endpoint_GetEndpointInterrupts(void) ATTR_WARN_UNUSED_RESULT ATTR_ALWAYS_I
 378:../../LUFA/Drivers/USB/LowLevel/Endpoint.h **** 			static inline uint8_t Endpoint_GetEndpointInterrupts(void)
 379:../../LUFA/Drivers/USB/LowLevel/Endpoint.h **** 			{
 380:../../LUFA/Drivers/USB/LowLevel/Endpoint.h **** 				return UEINT;
 381:../../LUFA/Drivers/USB/LowLevel/Endpoint.h **** 			}
 382:../../LUFA/Drivers/USB/LowLevel/Endpoint.h **** 			
 383:../../LUFA/Drivers/USB/LowLevel/Endpoint.h **** 			/** Determines if the specified endpoint number has interrupted (valid only for INTERRUPT type
 384:../../LUFA/Drivers/USB/LowLevel/Endpoint.h **** 			 *  endpoints).
 385:../../LUFA/Drivers/USB/LowLevel/Endpoint.h **** 			 *
 386:../../LUFA/Drivers/USB/LowLevel/Endpoint.h **** 			 *  \param[in] EndpointNumber  Index of the endpoint whose interrupt flag should be tested.
 387:../../LUFA/Drivers/USB/LowLevel/Endpoint.h **** 			 *
 388:../../LUFA/Drivers/USB/LowLevel/Endpoint.h **** 			 *  \return Boolean true if the specified endpoint has interrupted, false otherwise.
 389:../../LUFA/Drivers/USB/LowLevel/Endpoint.h **** 			 */
 390:../../LUFA/Drivers/USB/LowLevel/Endpoint.h **** 			static inline bool Endpoint_HasEndpointInterrupted(const uint8_t EndpointNumber) ATTR_WARN_UNUSE
 391:../../LUFA/Drivers/USB/LowLevel/Endpoint.h **** 			static inline bool Endpoint_HasEndpointInterrupted(const uint8_t EndpointNumber)
 392:../../LUFA/Drivers/USB/LowLevel/Endpoint.h **** 			{
 393:../../LUFA/Drivers/USB/LowLevel/Endpoint.h **** 				return ((UEINT & (1 << EndpointNumber)) ? true : false);
 394:../../LUFA/Drivers/USB/LowLevel/Endpoint.h **** 			}
 395:../../LUFA/Drivers/USB/LowLevel/Endpoint.h **** 			
 396:../../LUFA/Drivers/USB/LowLevel/Endpoint.h **** 			/** Determines if the selected IN endpoint is ready for a new packet.
 397:../../LUFA/Drivers/USB/LowLevel/Endpoint.h **** 			 *
 398:../../LUFA/Drivers/USB/LowLevel/Endpoint.h **** 			 *  \ingroup Group_EndpointPacketManagement
 399:../../LUFA/Drivers/USB/LowLevel/Endpoint.h **** 			 *
 400:../../LUFA/Drivers/USB/LowLevel/Endpoint.h **** 			 *  \return Boolean true if the current endpoint is ready for an IN packet, false otherwise.
 401:../../LUFA/Drivers/USB/LowLevel/Endpoint.h **** 			 */
 402:../../LUFA/Drivers/USB/LowLevel/Endpoint.h **** 			static inline bool Endpoint_IsINReady(void) ATTR_WARN_UNUSED_RESULT ATTR_ALWAYS_INLINE;
 403:../../LUFA/Drivers/USB/LowLevel/Endpoint.h **** 			static inline bool Endpoint_IsINReady(void)
 404:../../LUFA/Drivers/USB/LowLevel/Endpoint.h **** 			{
 405:../../LUFA/Drivers/USB/LowLevel/Endpoint.h **** 				return ((UEINTX & (1 << TXINI))  ? true : false);
 406:../../LUFA/Drivers/USB/LowLevel/Endpoint.h **** 			}
 407:../../LUFA/Drivers/USB/LowLevel/Endpoint.h **** 			
 408:../../LUFA/Drivers/USB/LowLevel/Endpoint.h **** 			/** Determines if the selected OUT endpoint has received new packet.
 409:../../LUFA/Drivers/USB/LowLevel/Endpoint.h **** 			 *
 410:../../LUFA/Drivers/USB/LowLevel/Endpoint.h **** 			 *  \ingroup Group_EndpointPacketManagement
 411:../../LUFA/Drivers/USB/LowLevel/Endpoint.h **** 			 *
 412:../../LUFA/Drivers/USB/LowLevel/Endpoint.h **** 			 *  \return Boolean true if current endpoint is has received an OUT packet, false otherwise.
 413:../../LUFA/Drivers/USB/LowLevel/Endpoint.h **** 			 */
 414:../../LUFA/Drivers/USB/LowLevel/Endpoint.h **** 			static inline bool Endpoint_IsOUTReceived(void) ATTR_WARN_UNUSED_RESULT ATTR_ALWAYS_INLINE;
 415:../../LUFA/Drivers/USB/LowLevel/Endpoint.h **** 			static inline bool Endpoint_IsOUTReceived(void)
 416:../../LUFA/Drivers/USB/LowLevel/Endpoint.h **** 			{
 417:../../LUFA/Drivers/USB/LowLevel/Endpoint.h **** 				return ((UEINTX & (1 << RXOUTI)) ? true : false);
 418:../../LUFA/Drivers/USB/LowLevel/Endpoint.h **** 			}
 419:../../LUFA/Drivers/USB/LowLevel/Endpoint.h **** 			
 420:../../LUFA/Drivers/USB/LowLevel/Endpoint.h **** 			/** Determines if the current CONTROL type endpoint has received a SETUP packet.
 421:../../LUFA/Drivers/USB/LowLevel/Endpoint.h **** 			 *
 422:../../LUFA/Drivers/USB/LowLevel/Endpoint.h **** 			 *  \ingroup Group_EndpointPacketManagement
 423:../../LUFA/Drivers/USB/LowLevel/Endpoint.h **** 			 *
 424:../../LUFA/Drivers/USB/LowLevel/Endpoint.h **** 			 *  \return Boolean true if the selected endpoint has received a SETUP packet, false otherwise.
 425:../../LUFA/Drivers/USB/LowLevel/Endpoint.h **** 			 */
 426:../../LUFA/Drivers/USB/LowLevel/Endpoint.h **** 			static inline bool Endpoint_IsSETUPReceived(void) ATTR_WARN_UNUSED_RESULT ATTR_ALWAYS_INLINE;
 427:../../LUFA/Drivers/USB/LowLevel/Endpoint.h **** 			static inline bool Endpoint_IsSETUPReceived(void)
 428:../../LUFA/Drivers/USB/LowLevel/Endpoint.h **** 			{
 429:../../LUFA/Drivers/USB/LowLevel/Endpoint.h **** 				return ((UEINTX & (1 << RXSTPI)) ? true : false);
 430:../../LUFA/Drivers/USB/LowLevel/Endpoint.h **** 			}
 431:../../LUFA/Drivers/USB/LowLevel/Endpoint.h **** 			
 432:../../LUFA/Drivers/USB/LowLevel/Endpoint.h **** 			/** Clears a received SETUP packet on the currently selected CONTROL type endpoint, freeing up t
 433:../../LUFA/Drivers/USB/LowLevel/Endpoint.h **** 			 *  endpoint for the next packet.
 434:../../LUFA/Drivers/USB/LowLevel/Endpoint.h **** 			 *
 435:../../LUFA/Drivers/USB/LowLevel/Endpoint.h **** 			 *  \ingroup Group_EndpointPacketManagement
 436:../../LUFA/Drivers/USB/LowLevel/Endpoint.h **** 			 *
 437:../../LUFA/Drivers/USB/LowLevel/Endpoint.h **** 			 *  \note This is not applicable for non CONTROL type endpoints. 
 438:../../LUFA/Drivers/USB/LowLevel/Endpoint.h **** 			 */
 439:../../LUFA/Drivers/USB/LowLevel/Endpoint.h **** 			static inline void Endpoint_ClearSETUP(void) ATTR_ALWAYS_INLINE;
 440:../../LUFA/Drivers/USB/LowLevel/Endpoint.h **** 			static inline void Endpoint_ClearSETUP(void)
 441:../../LUFA/Drivers/USB/LowLevel/Endpoint.h **** 			{
 442:../../LUFA/Drivers/USB/LowLevel/Endpoint.h **** 				UEINTX &= ~(1 << RXSTPI);
 443:../../LUFA/Drivers/USB/LowLevel/Endpoint.h **** 			}
 444:../../LUFA/Drivers/USB/LowLevel/Endpoint.h **** 			
 445:../../LUFA/Drivers/USB/LowLevel/Endpoint.h **** 			/** Sends an IN packet to the host on the currently selected endpoint, freeing up the endpoint f
 446:../../LUFA/Drivers/USB/LowLevel/Endpoint.h **** 			 *  next packet and switching to the alternative endpoint bank if double banked.
 447:../../LUFA/Drivers/USB/LowLevel/Endpoint.h **** 			 *
 448:../../LUFA/Drivers/USB/LowLevel/Endpoint.h **** 			 *  \ingroup Group_EndpointPacketManagement
 449:../../LUFA/Drivers/USB/LowLevel/Endpoint.h **** 			 */
 450:../../LUFA/Drivers/USB/LowLevel/Endpoint.h **** 			static inline void Endpoint_ClearIN(void) ATTR_ALWAYS_INLINE;
 451:../../LUFA/Drivers/USB/LowLevel/Endpoint.h **** 			static inline void Endpoint_ClearIN(void)
 452:../../LUFA/Drivers/USB/LowLevel/Endpoint.h **** 			{
 453:../../LUFA/Drivers/USB/LowLevel/Endpoint.h **** 				#if !defined(CONTROL_ONLY_DEVICE)
 454:../../LUFA/Drivers/USB/LowLevel/Endpoint.h **** 					UEINTX &= ~((1 << TXINI) | (1 << FIFOCON));
 455:../../LUFA/Drivers/USB/LowLevel/Endpoint.h **** 				#else
 456:../../LUFA/Drivers/USB/LowLevel/Endpoint.h **** 					UEINTX &= ~(1 << TXINI);
 457:../../LUFA/Drivers/USB/LowLevel/Endpoint.h **** 				#endif
 458:../../LUFA/Drivers/USB/LowLevel/Endpoint.h **** 			}
 459:../../LUFA/Drivers/USB/LowLevel/Endpoint.h **** 			
 460:../../LUFA/Drivers/USB/LowLevel/Endpoint.h **** 			/** Acknowledges an OUT packet to the host on the currently selected endpoint, freeing up the en
 461:../../LUFA/Drivers/USB/LowLevel/Endpoint.h **** 			 *  for the next packet and switching to the alternative endpoint bank if double banked.
 462:../../LUFA/Drivers/USB/LowLevel/Endpoint.h **** 			 *
 463:../../LUFA/Drivers/USB/LowLevel/Endpoint.h **** 			 *  \ingroup Group_EndpointPacketManagement
 464:../../LUFA/Drivers/USB/LowLevel/Endpoint.h **** 			 */
 465:../../LUFA/Drivers/USB/LowLevel/Endpoint.h **** 			static inline void Endpoint_ClearOUT(void) ATTR_ALWAYS_INLINE;
 466:../../LUFA/Drivers/USB/LowLevel/Endpoint.h **** 			static inline void Endpoint_ClearOUT(void)
 467:../../LUFA/Drivers/USB/LowLevel/Endpoint.h **** 			{
 468:../../LUFA/Drivers/USB/LowLevel/Endpoint.h **** 				#if !defined(CONTROL_ONLY_DEVICE)
 469:../../LUFA/Drivers/USB/LowLevel/Endpoint.h **** 					UEINTX &= ~((1 << RXOUTI) | (1 << FIFOCON));
 470:../../LUFA/Drivers/USB/LowLevel/Endpoint.h **** 				#else
 471:../../LUFA/Drivers/USB/LowLevel/Endpoint.h **** 					UEINTX &= ~(1 << RXOUTI);	
 472:../../LUFA/Drivers/USB/LowLevel/Endpoint.h **** 				#endif
 473:../../LUFA/Drivers/USB/LowLevel/Endpoint.h **** 			}
 474:../../LUFA/Drivers/USB/LowLevel/Endpoint.h **** 			
 475:../../LUFA/Drivers/USB/LowLevel/Endpoint.h **** 			/** Stalls the current endpoint, indicating to the host that a logical problem occurred with the
 476:../../LUFA/Drivers/USB/LowLevel/Endpoint.h **** 			 *  indicated endpoint and that the current transfer sequence should be aborted. This provides a
 477:../../LUFA/Drivers/USB/LowLevel/Endpoint.h **** 			 *  way for devices to indicate invalid commands to the host so that the current transfer can be
 478:../../LUFA/Drivers/USB/LowLevel/Endpoint.h **** 			 *  aborted and the host can begin its own recovery sequence.
 479:../../LUFA/Drivers/USB/LowLevel/Endpoint.h **** 			 *
 480:../../LUFA/Drivers/USB/LowLevel/Endpoint.h **** 			 *  The currently selected endpoint remains stalled until either the \ref Endpoint_ClearStall() 
 481:../../LUFA/Drivers/USB/LowLevel/Endpoint.h **** 			 *  is called, or the host issues a CLEAR FEATURE request to the device for the currently select
 482:../../LUFA/Drivers/USB/LowLevel/Endpoint.h **** 			 *  endpoint.
 483:../../LUFA/Drivers/USB/LowLevel/Endpoint.h **** 			 *
 484:../../LUFA/Drivers/USB/LowLevel/Endpoint.h **** 			 *  \ingroup Group_EndpointPacketManagement
 485:../../LUFA/Drivers/USB/LowLevel/Endpoint.h **** 			 */
 486:../../LUFA/Drivers/USB/LowLevel/Endpoint.h **** 			static inline void Endpoint_StallTransaction(void) ATTR_ALWAYS_INLINE;
 487:../../LUFA/Drivers/USB/LowLevel/Endpoint.h **** 			static inline void Endpoint_StallTransaction(void)
 488:../../LUFA/Drivers/USB/LowLevel/Endpoint.h **** 			{
 489:../../LUFA/Drivers/USB/LowLevel/Endpoint.h **** 				UECONX |= (1 << STALLRQ);
 490:../../LUFA/Drivers/USB/LowLevel/Endpoint.h **** 			}
 491:../../LUFA/Drivers/USB/LowLevel/Endpoint.h **** 			
 492:../../LUFA/Drivers/USB/LowLevel/Endpoint.h **** 			/** Clears the STALL condition on the currently selected endpoint.
 493:../../LUFA/Drivers/USB/LowLevel/Endpoint.h **** 			 *
 494:../../LUFA/Drivers/USB/LowLevel/Endpoint.h **** 			 *  \ingroup Group_EndpointPacketManagement
 495:../../LUFA/Drivers/USB/LowLevel/Endpoint.h **** 			 */
 496:../../LUFA/Drivers/USB/LowLevel/Endpoint.h **** 			static inline void Endpoint_ClearStall(void) ATTR_ALWAYS_INLINE;
 497:../../LUFA/Drivers/USB/LowLevel/Endpoint.h **** 			static inline void Endpoint_ClearStall(void)
 498:../../LUFA/Drivers/USB/LowLevel/Endpoint.h **** 			{
 499:../../LUFA/Drivers/USB/LowLevel/Endpoint.h **** 				UECONX |= (1 << STALLRQC);
 500:../../LUFA/Drivers/USB/LowLevel/Endpoint.h **** 			}
 501:../../LUFA/Drivers/USB/LowLevel/Endpoint.h **** 			
 502:../../LUFA/Drivers/USB/LowLevel/Endpoint.h **** 			/** Determines if the currently selected endpoint is stalled, false otherwise.
 503:../../LUFA/Drivers/USB/LowLevel/Endpoint.h **** 			 *
 504:../../LUFA/Drivers/USB/LowLevel/Endpoint.h **** 			 *  \ingroup Group_EndpointPacketManagement
 505:../../LUFA/Drivers/USB/LowLevel/Endpoint.h **** 			 *
 506:../../LUFA/Drivers/USB/LowLevel/Endpoint.h **** 			 *  \return Boolean true if the currently selected endpoint is stalled, false otherwise.
 507:../../LUFA/Drivers/USB/LowLevel/Endpoint.h **** 			 */
 508:../../LUFA/Drivers/USB/LowLevel/Endpoint.h **** 			static inline bool Endpoint_IsStalled(void) ATTR_WARN_UNUSED_RESULT ATTR_ALWAYS_INLINE;
 509:../../LUFA/Drivers/USB/LowLevel/Endpoint.h **** 			static inline bool Endpoint_IsStalled(void)
 510:../../LUFA/Drivers/USB/LowLevel/Endpoint.h **** 			{
 511:../../LUFA/Drivers/USB/LowLevel/Endpoint.h **** 				return ((UECONX & (1 << STALLRQ)) ? true : false);
 512:../../LUFA/Drivers/USB/LowLevel/Endpoint.h **** 			}
 513:../../LUFA/Drivers/USB/LowLevel/Endpoint.h **** 			
 514:../../LUFA/Drivers/USB/LowLevel/Endpoint.h **** 			/** Resets the data toggle of the currently selected endpoint. */
 515:../../LUFA/Drivers/USB/LowLevel/Endpoint.h **** 			static inline void Endpoint_ResetDataToggle(void) ATTR_ALWAYS_INLINE;
 516:../../LUFA/Drivers/USB/LowLevel/Endpoint.h **** 			static inline void Endpoint_ResetDataToggle(void)
 517:../../LUFA/Drivers/USB/LowLevel/Endpoint.h **** 			{
 518:../../LUFA/Drivers/USB/LowLevel/Endpoint.h **** 				UECONX |= (1 << RSTDT);
 519:../../LUFA/Drivers/USB/LowLevel/Endpoint.h **** 			}
 520:../../LUFA/Drivers/USB/LowLevel/Endpoint.h **** 			
 521:../../LUFA/Drivers/USB/LowLevel/Endpoint.h **** 			/** Determines the currently selected endpoint's direction.
 522:../../LUFA/Drivers/USB/LowLevel/Endpoint.h **** 			 *
 523:../../LUFA/Drivers/USB/LowLevel/Endpoint.h **** 			 *  \return The currently selected endpoint's direction, as a ENDPOINT_DIR_* mask.
 524:../../LUFA/Drivers/USB/LowLevel/Endpoint.h **** 			 */
 525:../../LUFA/Drivers/USB/LowLevel/Endpoint.h **** 			static inline uint8_t Endpoint_GetEndpointDirection(void) ATTR_WARN_UNUSED_RESULT ATTR_ALWAYS_IN
 526:../../LUFA/Drivers/USB/LowLevel/Endpoint.h **** 			static inline uint8_t Endpoint_GetEndpointDirection(void)
 527:../../LUFA/Drivers/USB/LowLevel/Endpoint.h **** 			{
 528:../../LUFA/Drivers/USB/LowLevel/Endpoint.h **** 				return (UECFG0X & ENDPOINT_DIR_IN);
 529:../../LUFA/Drivers/USB/LowLevel/Endpoint.h **** 			}
 530:../../LUFA/Drivers/USB/LowLevel/Endpoint.h **** 
 531:../../LUFA/Drivers/USB/LowLevel/Endpoint.h **** 			/** Sets the direction of the currently selected endpoint.
 532:../../LUFA/Drivers/USB/LowLevel/Endpoint.h **** 			 *
 533:../../LUFA/Drivers/USB/LowLevel/Endpoint.h **** 			 *  \param[in] DirectionMask  New endpoint direction, as a ENDPOINT_DIR_* mask.
 534:../../LUFA/Drivers/USB/LowLevel/Endpoint.h **** 			 */
 535:../../LUFA/Drivers/USB/LowLevel/Endpoint.h **** 			static inline void Endpoint_SetEndpointDirection(const uint8_t DirectionMask) ATTR_ALWAYS_INLINE
 536:../../LUFA/Drivers/USB/LowLevel/Endpoint.h **** 			static inline void Endpoint_SetEndpointDirection(const uint8_t DirectionMask)
 537:../../LUFA/Drivers/USB/LowLevel/Endpoint.h **** 			{
 538:../../LUFA/Drivers/USB/LowLevel/Endpoint.h **** 				UECFG0X = ((UECFG0X & ~ENDPOINT_DIR_IN) | DirectionMask);
 539:../../LUFA/Drivers/USB/LowLevel/Endpoint.h **** 			}
 540:../../LUFA/Drivers/USB/LowLevel/Endpoint.h **** 
 541:../../LUFA/Drivers/USB/LowLevel/Endpoint.h **** 			/** Reads one byte from the currently selected endpoint's bank, for OUT direction endpoints.
 542:../../LUFA/Drivers/USB/LowLevel/Endpoint.h **** 			 *
 543:../../LUFA/Drivers/USB/LowLevel/Endpoint.h **** 			 *  \ingroup Group_EndpointPrimitiveRW
 544:../../LUFA/Drivers/USB/LowLevel/Endpoint.h **** 			 *
 545:../../LUFA/Drivers/USB/LowLevel/Endpoint.h **** 			 *  \return Next byte in the currently selected endpoint's FIFO buffer.
 546:../../LUFA/Drivers/USB/LowLevel/Endpoint.h **** 			 */
 547:../../LUFA/Drivers/USB/LowLevel/Endpoint.h **** 			static inline uint8_t Endpoint_Read_Byte(void) ATTR_WARN_UNUSED_RESULT ATTR_ALWAYS_INLINE;
 548:../../LUFA/Drivers/USB/LowLevel/Endpoint.h **** 			static inline uint8_t Endpoint_Read_Byte(void)
 549:../../LUFA/Drivers/USB/LowLevel/Endpoint.h **** 			{
 550:../../LUFA/Drivers/USB/LowLevel/Endpoint.h **** 				return UEDATX;
 551:../../LUFA/Drivers/USB/LowLevel/Endpoint.h **** 			}
 552:../../LUFA/Drivers/USB/LowLevel/Endpoint.h **** 
 553:../../LUFA/Drivers/USB/LowLevel/Endpoint.h **** 			/** Writes one byte from the currently selected endpoint's bank, for IN direction endpoints.
 554:../../LUFA/Drivers/USB/LowLevel/Endpoint.h **** 			 *
 555:../../LUFA/Drivers/USB/LowLevel/Endpoint.h **** 			 *  \ingroup Group_EndpointPrimitiveRW
 556:../../LUFA/Drivers/USB/LowLevel/Endpoint.h **** 			 *
 557:../../LUFA/Drivers/USB/LowLevel/Endpoint.h **** 			 *  \param[in] Byte  Next byte to write into the the currently selected endpoint's FIFO buffer.
 558:../../LUFA/Drivers/USB/LowLevel/Endpoint.h **** 			 */
 559:../../LUFA/Drivers/USB/LowLevel/Endpoint.h **** 			static inline void Endpoint_Write_Byte(const uint8_t Byte) ATTR_ALWAYS_INLINE;
 560:../../LUFA/Drivers/USB/LowLevel/Endpoint.h **** 			static inline void Endpoint_Write_Byte(const uint8_t Byte)
 561:../../LUFA/Drivers/USB/LowLevel/Endpoint.h **** 			{
 562:../../LUFA/Drivers/USB/LowLevel/Endpoint.h **** 				UEDATX = Byte;
 563:../../LUFA/Drivers/USB/LowLevel/Endpoint.h **** 			}
 564:../../LUFA/Drivers/USB/LowLevel/Endpoint.h **** 
 565:../../LUFA/Drivers/USB/LowLevel/Endpoint.h **** 			/** Discards one byte from the currently selected endpoint's bank, for OUT direction endpoints.
 566:../../LUFA/Drivers/USB/LowLevel/Endpoint.h **** 			 *
 567:../../LUFA/Drivers/USB/LowLevel/Endpoint.h **** 			 *  \ingroup Group_EndpointPrimitiveRW
 568:../../LUFA/Drivers/USB/LowLevel/Endpoint.h **** 			 */
 569:../../LUFA/Drivers/USB/LowLevel/Endpoint.h **** 			static inline void Endpoint_Discard_Byte(void) ATTR_ALWAYS_INLINE;
 570:../../LUFA/Drivers/USB/LowLevel/Endpoint.h **** 			static inline void Endpoint_Discard_Byte(void)
 571:../../LUFA/Drivers/USB/LowLevel/Endpoint.h **** 			{
 572:../../LUFA/Drivers/USB/LowLevel/Endpoint.h **** 				uint8_t Dummy;
 573:../../LUFA/Drivers/USB/LowLevel/Endpoint.h **** 				
 574:../../LUFA/Drivers/USB/LowLevel/Endpoint.h **** 				Dummy = UEDATX;
 575:../../LUFA/Drivers/USB/LowLevel/Endpoint.h **** 			}
 576:../../LUFA/Drivers/USB/LowLevel/Endpoint.h **** 			
 577:../../LUFA/Drivers/USB/LowLevel/Endpoint.h **** 			/** Reads two bytes from the currently selected endpoint's bank in little endian format, for OUT
 578:../../LUFA/Drivers/USB/LowLevel/Endpoint.h **** 			 *  direction endpoints.
 579:../../LUFA/Drivers/USB/LowLevel/Endpoint.h **** 			 *
 580:../../LUFA/Drivers/USB/LowLevel/Endpoint.h **** 			 *  \ingroup Group_EndpointPrimitiveRW
 581:../../LUFA/Drivers/USB/LowLevel/Endpoint.h **** 			 *
 582:../../LUFA/Drivers/USB/LowLevel/Endpoint.h **** 			 *  \return Next word in the currently selected endpoint's FIFO buffer.
 583:../../LUFA/Drivers/USB/LowLevel/Endpoint.h **** 			 */
 584:../../LUFA/Drivers/USB/LowLevel/Endpoint.h **** 			static inline uint16_t Endpoint_Read_Word_LE(void) ATTR_WARN_UNUSED_RESULT ATTR_ALWAYS_INLINE;
 585:../../LUFA/Drivers/USB/LowLevel/Endpoint.h **** 			static inline uint16_t Endpoint_Read_Word_LE(void)
 586:../../LUFA/Drivers/USB/LowLevel/Endpoint.h **** 			{
 587:../../LUFA/Drivers/USB/LowLevel/Endpoint.h **** 				union
 588:../../LUFA/Drivers/USB/LowLevel/Endpoint.h **** 				{
 589:../../LUFA/Drivers/USB/LowLevel/Endpoint.h **** 					uint16_t Word;
 590:../../LUFA/Drivers/USB/LowLevel/Endpoint.h **** 					uint8_t  Bytes[2];
 591:../../LUFA/Drivers/USB/LowLevel/Endpoint.h **** 				} Data;
 592:../../LUFA/Drivers/USB/LowLevel/Endpoint.h **** 				
 593:../../LUFA/Drivers/USB/LowLevel/Endpoint.h **** 				Data.Bytes[0] = UEDATX;
 594:../../LUFA/Drivers/USB/LowLevel/Endpoint.h **** 				Data.Bytes[1] = UEDATX;
 595:../../LUFA/Drivers/USB/LowLevel/Endpoint.h **** 			
 596:../../LUFA/Drivers/USB/LowLevel/Endpoint.h **** 				return Data.Word;
 597:../../LUFA/Drivers/USB/LowLevel/Endpoint.h **** 			}
 598:../../LUFA/Drivers/USB/LowLevel/Endpoint.h **** 
 599:../../LUFA/Drivers/USB/LowLevel/Endpoint.h **** 			/** Reads two bytes from the currently selected endpoint's bank in big endian format, for OUT
 600:../../LUFA/Drivers/USB/LowLevel/Endpoint.h **** 			 *  direction endpoints.
 601:../../LUFA/Drivers/USB/LowLevel/Endpoint.h **** 			 *
 602:../../LUFA/Drivers/USB/LowLevel/Endpoint.h **** 			 *  \ingroup Group_EndpointPrimitiveRW
 603:../../LUFA/Drivers/USB/LowLevel/Endpoint.h **** 			 *
 604:../../LUFA/Drivers/USB/LowLevel/Endpoint.h **** 			 *  \return Next word in the currently selected endpoint's FIFO buffer.
 605:../../LUFA/Drivers/USB/LowLevel/Endpoint.h **** 			 */
 606:../../LUFA/Drivers/USB/LowLevel/Endpoint.h **** 			static inline uint16_t Endpoint_Read_Word_BE(void) ATTR_WARN_UNUSED_RESULT ATTR_ALWAYS_INLINE;
 607:../../LUFA/Drivers/USB/LowLevel/Endpoint.h **** 			static inline uint16_t Endpoint_Read_Word_BE(void)
 608:../../LUFA/Drivers/USB/LowLevel/Endpoint.h **** 			{
 609:../../LUFA/Drivers/USB/LowLevel/Endpoint.h **** 				union
 610:../../LUFA/Drivers/USB/LowLevel/Endpoint.h **** 				{
 611:../../LUFA/Drivers/USB/LowLevel/Endpoint.h **** 					uint16_t Word;
 612:../../LUFA/Drivers/USB/LowLevel/Endpoint.h **** 					uint8_t  Bytes[2];
 613:../../LUFA/Drivers/USB/LowLevel/Endpoint.h **** 				} Data;
 614:../../LUFA/Drivers/USB/LowLevel/Endpoint.h **** 				
 615:../../LUFA/Drivers/USB/LowLevel/Endpoint.h **** 				Data.Bytes[1] = UEDATX;
 616:../../LUFA/Drivers/USB/LowLevel/Endpoint.h **** 				Data.Bytes[0] = UEDATX;
 617:../../LUFA/Drivers/USB/LowLevel/Endpoint.h **** 			
 618:../../LUFA/Drivers/USB/LowLevel/Endpoint.h **** 				return Data.Word;
 619:../../LUFA/Drivers/USB/LowLevel/Endpoint.h **** 			}
 620:../../LUFA/Drivers/USB/LowLevel/Endpoint.h **** 
 621:../../LUFA/Drivers/USB/LowLevel/Endpoint.h **** 			/** Writes two bytes to the currently selected endpoint's bank in little endian format, for IN
 622:../../LUFA/Drivers/USB/LowLevel/Endpoint.h **** 			 *  direction endpoints.
 623:../../LUFA/Drivers/USB/LowLevel/Endpoint.h **** 			 *
 624:../../LUFA/Drivers/USB/LowLevel/Endpoint.h **** 			 *  \ingroup Group_EndpointPrimitiveRW
 625:../../LUFA/Drivers/USB/LowLevel/Endpoint.h **** 			 *
 626:../../LUFA/Drivers/USB/LowLevel/Endpoint.h **** 			 *  \param[in] Word  Next word to write to the currently selected endpoint's FIFO buffer.
 627:../../LUFA/Drivers/USB/LowLevel/Endpoint.h **** 			 */
 628:../../LUFA/Drivers/USB/LowLevel/Endpoint.h **** 			static inline void Endpoint_Write_Word_LE(const uint16_t Word) ATTR_ALWAYS_INLINE;
 629:../../LUFA/Drivers/USB/LowLevel/Endpoint.h **** 			static inline void Endpoint_Write_Word_LE(const uint16_t Word)
 630:../../LUFA/Drivers/USB/LowLevel/Endpoint.h **** 			{
 631:../../LUFA/Drivers/USB/LowLevel/Endpoint.h **** 				UEDATX = (Word & 0xFF);
 632:../../LUFA/Drivers/USB/LowLevel/Endpoint.h **** 				UEDATX = (Word >> 8);
 633:../../LUFA/Drivers/USB/LowLevel/Endpoint.h **** 			}
 634:../../LUFA/Drivers/USB/LowLevel/Endpoint.h **** 			
 635:../../LUFA/Drivers/USB/LowLevel/Endpoint.h **** 			/** Writes two bytes to the currently selected endpoint's bank in big endian format, for IN
 636:../../LUFA/Drivers/USB/LowLevel/Endpoint.h **** 			 *  direction endpoints.
 637:../../LUFA/Drivers/USB/LowLevel/Endpoint.h **** 			 *
 638:../../LUFA/Drivers/USB/LowLevel/Endpoint.h **** 			 *  \ingroup Group_EndpointPrimitiveRW
 639:../../LUFA/Drivers/USB/LowLevel/Endpoint.h **** 			 *
 640:../../LUFA/Drivers/USB/LowLevel/Endpoint.h **** 			 *  \param[in] Word  Next word to write to the currently selected endpoint's FIFO buffer.
 641:../../LUFA/Drivers/USB/LowLevel/Endpoint.h **** 			 */
 642:../../LUFA/Drivers/USB/LowLevel/Endpoint.h **** 			static inline void Endpoint_Write_Word_BE(const uint16_t Word) ATTR_ALWAYS_INLINE;
 643:../../LUFA/Drivers/USB/LowLevel/Endpoint.h **** 			static inline void Endpoint_Write_Word_BE(const uint16_t Word)
 644:../../LUFA/Drivers/USB/LowLevel/Endpoint.h **** 			{
 645:../../LUFA/Drivers/USB/LowLevel/Endpoint.h **** 				UEDATX = (Word >> 8);
 646:../../LUFA/Drivers/USB/LowLevel/Endpoint.h **** 				UEDATX = (Word & 0xFF);
 647:../../LUFA/Drivers/USB/LowLevel/Endpoint.h **** 			}
 648:../../LUFA/Drivers/USB/LowLevel/Endpoint.h **** 
 649:../../LUFA/Drivers/USB/LowLevel/Endpoint.h **** 			/** Discards two bytes from the currently selected endpoint's bank, for OUT direction endpoints.
 650:../../LUFA/Drivers/USB/LowLevel/Endpoint.h **** 			 *
 651:../../LUFA/Drivers/USB/LowLevel/Endpoint.h **** 			 *  \ingroup Group_EndpointPrimitiveRW
 652:../../LUFA/Drivers/USB/LowLevel/Endpoint.h **** 			 */
 653:../../LUFA/Drivers/USB/LowLevel/Endpoint.h **** 			static inline void Endpoint_Discard_Word(void) ATTR_ALWAYS_INLINE;
 654:../../LUFA/Drivers/USB/LowLevel/Endpoint.h **** 			static inline void Endpoint_Discard_Word(void)
 655:../../LUFA/Drivers/USB/LowLevel/Endpoint.h **** 			{
 656:../../LUFA/Drivers/USB/LowLevel/Endpoint.h **** 				uint8_t Dummy;
 657:../../LUFA/Drivers/USB/LowLevel/Endpoint.h **** 				
 658:../../LUFA/Drivers/USB/LowLevel/Endpoint.h **** 				Dummy = UEDATX;
 659:../../LUFA/Drivers/USB/LowLevel/Endpoint.h **** 				Dummy = UEDATX;
 660:../../LUFA/Drivers/USB/LowLevel/Endpoint.h **** 			}
 661:../../LUFA/Drivers/USB/LowLevel/Endpoint.h **** 
 662:../../LUFA/Drivers/USB/LowLevel/Endpoint.h **** 			/** Reads four bytes from the currently selected endpoint's bank in little endian format, for OU
 663:../../LUFA/Drivers/USB/LowLevel/Endpoint.h **** 			 *  direction endpoints.
 664:../../LUFA/Drivers/USB/LowLevel/Endpoint.h **** 			 *
 665:../../LUFA/Drivers/USB/LowLevel/Endpoint.h **** 			 *  \ingroup Group_EndpointPrimitiveRW
 666:../../LUFA/Drivers/USB/LowLevel/Endpoint.h **** 			 *
 667:../../LUFA/Drivers/USB/LowLevel/Endpoint.h **** 			 *  \return Next double word in the currently selected endpoint's FIFO buffer.
 668:../../LUFA/Drivers/USB/LowLevel/Endpoint.h **** 			 */
 669:../../LUFA/Drivers/USB/LowLevel/Endpoint.h **** 			static inline uint32_t Endpoint_Read_DWord_LE(void) ATTR_WARN_UNUSED_RESULT ATTR_ALWAYS_INLINE;
 670:../../LUFA/Drivers/USB/LowLevel/Endpoint.h **** 			static inline uint32_t Endpoint_Read_DWord_LE(void)
 671:../../LUFA/Drivers/USB/LowLevel/Endpoint.h **** 			{
 672:../../LUFA/Drivers/USB/LowLevel/Endpoint.h **** 				union
 673:../../LUFA/Drivers/USB/LowLevel/Endpoint.h **** 				{
 674:../../LUFA/Drivers/USB/LowLevel/Endpoint.h **** 					uint32_t DWord;
 675:../../LUFA/Drivers/USB/LowLevel/Endpoint.h **** 					uint8_t  Bytes[4];
 676:../../LUFA/Drivers/USB/LowLevel/Endpoint.h **** 				} Data;
 677:../../LUFA/Drivers/USB/LowLevel/Endpoint.h **** 				
 678:../../LUFA/Drivers/USB/LowLevel/Endpoint.h **** 				Data.Bytes[0] = UEDATX;
 679:../../LUFA/Drivers/USB/LowLevel/Endpoint.h **** 				Data.Bytes[1] = UEDATX;
 680:../../LUFA/Drivers/USB/LowLevel/Endpoint.h **** 				Data.Bytes[2] = UEDATX;
 681:../../LUFA/Drivers/USB/LowLevel/Endpoint.h **** 				Data.Bytes[3] = UEDATX;
 682:../../LUFA/Drivers/USB/LowLevel/Endpoint.h **** 			
 683:../../LUFA/Drivers/USB/LowLevel/Endpoint.h **** 				return Data.DWord;
 684:../../LUFA/Drivers/USB/LowLevel/Endpoint.h **** 			}
 685:../../LUFA/Drivers/USB/LowLevel/Endpoint.h **** 
 686:../../LUFA/Drivers/USB/LowLevel/Endpoint.h **** 			/** Reads four bytes from the currently selected endpoint's bank in big endian format, for OUT
 687:../../LUFA/Drivers/USB/LowLevel/Endpoint.h **** 			 *  direction endpoints.
 688:../../LUFA/Drivers/USB/LowLevel/Endpoint.h **** 			 *
 689:../../LUFA/Drivers/USB/LowLevel/Endpoint.h **** 			 *  \ingroup Group_EndpointPrimitiveRW
 690:../../LUFA/Drivers/USB/LowLevel/Endpoint.h **** 			 *
 691:../../LUFA/Drivers/USB/LowLevel/Endpoint.h **** 			 *  \return Next double word in the currently selected endpoint's FIFO buffer.
 692:../../LUFA/Drivers/USB/LowLevel/Endpoint.h **** 			 */
 693:../../LUFA/Drivers/USB/LowLevel/Endpoint.h **** 			static inline uint32_t Endpoint_Read_DWord_BE(void) ATTR_WARN_UNUSED_RESULT ATTR_ALWAYS_INLINE;
 694:../../LUFA/Drivers/USB/LowLevel/Endpoint.h **** 			static inline uint32_t Endpoint_Read_DWord_BE(void)
 695:../../LUFA/Drivers/USB/LowLevel/Endpoint.h **** 			{
 696:../../LUFA/Drivers/USB/LowLevel/Endpoint.h **** 				union
 697:../../LUFA/Drivers/USB/LowLevel/Endpoint.h **** 				{
 698:../../LUFA/Drivers/USB/LowLevel/Endpoint.h **** 					uint32_t DWord;
 699:../../LUFA/Drivers/USB/LowLevel/Endpoint.h **** 					uint8_t  Bytes[4];
 700:../../LUFA/Drivers/USB/LowLevel/Endpoint.h **** 				} Data;
 701:../../LUFA/Drivers/USB/LowLevel/Endpoint.h **** 				
 702:../../LUFA/Drivers/USB/LowLevel/Endpoint.h **** 				Data.Bytes[3] = UEDATX;
 703:../../LUFA/Drivers/USB/LowLevel/Endpoint.h **** 				Data.Bytes[2] = UEDATX;
 704:../../LUFA/Drivers/USB/LowLevel/Endpoint.h **** 				Data.Bytes[1] = UEDATX;
 705:../../LUFA/Drivers/USB/LowLevel/Endpoint.h **** 				Data.Bytes[0] = UEDATX;
 706:../../LUFA/Drivers/USB/LowLevel/Endpoint.h **** 			
 707:../../LUFA/Drivers/USB/LowLevel/Endpoint.h **** 				return Data.DWord;
 708:../../LUFA/Drivers/USB/LowLevel/Endpoint.h **** 			}
 709:../../LUFA/Drivers/USB/LowLevel/Endpoint.h **** 
 710:../../LUFA/Drivers/USB/LowLevel/Endpoint.h **** 			/** Writes four bytes to the currently selected endpoint's bank in little endian format, for IN
 711:../../LUFA/Drivers/USB/LowLevel/Endpoint.h **** 			 *  direction endpoints.
 712:../../LUFA/Drivers/USB/LowLevel/Endpoint.h **** 			 *
 713:../../LUFA/Drivers/USB/LowLevel/Endpoint.h **** 			 *  \ingroup Group_EndpointPrimitiveRW
 714:../../LUFA/Drivers/USB/LowLevel/Endpoint.h **** 			 *
 715:../../LUFA/Drivers/USB/LowLevel/Endpoint.h **** 			 *  \param[in] DWord  Next double word to write to the currently selected endpoint's FIFO buffer
 716:../../LUFA/Drivers/USB/LowLevel/Endpoint.h **** 			 */
 717:../../LUFA/Drivers/USB/LowLevel/Endpoint.h **** 			static inline void Endpoint_Write_DWord_LE(const uint32_t DWord) ATTR_ALWAYS_INLINE;
 718:../../LUFA/Drivers/USB/LowLevel/Endpoint.h **** 			static inline void Endpoint_Write_DWord_LE(const uint32_t DWord)
 719:../../LUFA/Drivers/USB/LowLevel/Endpoint.h **** 			{
 720:../../LUFA/Drivers/USB/LowLevel/Endpoint.h **** 				UEDATX = (DWord &  0xFF);
 721:../../LUFA/Drivers/USB/LowLevel/Endpoint.h **** 				UEDATX = (DWord >> 8);
 722:../../LUFA/Drivers/USB/LowLevel/Endpoint.h **** 				UEDATX = (DWord >> 16);
 723:../../LUFA/Drivers/USB/LowLevel/Endpoint.h **** 				UEDATX = (DWord >> 24);
 724:../../LUFA/Drivers/USB/LowLevel/Endpoint.h **** 			}
 725:../../LUFA/Drivers/USB/LowLevel/Endpoint.h **** 			
 726:../../LUFA/Drivers/USB/LowLevel/Endpoint.h **** 			/** Writes four bytes to the currently selected endpoint's bank in big endian format, for IN
 727:../../LUFA/Drivers/USB/LowLevel/Endpoint.h **** 			 *  direction endpoints.
 728:../../LUFA/Drivers/USB/LowLevel/Endpoint.h **** 			 *
 729:../../LUFA/Drivers/USB/LowLevel/Endpoint.h **** 			 *  \ingroup Group_EndpointPrimitiveRW
 730:../../LUFA/Drivers/USB/LowLevel/Endpoint.h **** 			 *
 731:../../LUFA/Drivers/USB/LowLevel/Endpoint.h **** 			 *  \param[in] DWord  Next double word to write to the currently selected endpoint's FIFO buffer
 732:../../LUFA/Drivers/USB/LowLevel/Endpoint.h **** 			 */
 733:../../LUFA/Drivers/USB/LowLevel/Endpoint.h **** 			static inline void Endpoint_Write_DWord_BE(const uint32_t DWord) ATTR_ALWAYS_INLINE;
 734:../../LUFA/Drivers/USB/LowLevel/Endpoint.h **** 			static inline void Endpoint_Write_DWord_BE(const uint32_t DWord)
 735:../../LUFA/Drivers/USB/LowLevel/Endpoint.h **** 			{
 736:../../LUFA/Drivers/USB/LowLevel/Endpoint.h **** 				UEDATX = (DWord >> 24);
 737:../../LUFA/Drivers/USB/LowLevel/Endpoint.h **** 				UEDATX = (DWord >> 16);
 738:../../LUFA/Drivers/USB/LowLevel/Endpoint.h **** 				UEDATX = (DWord >> 8);
 739:../../LUFA/Drivers/USB/LowLevel/Endpoint.h **** 				UEDATX = (DWord &  0xFF);
 740:../../LUFA/Drivers/USB/LowLevel/Endpoint.h **** 			}
 741:../../LUFA/Drivers/USB/LowLevel/Endpoint.h **** 
 742:../../LUFA/Drivers/USB/LowLevel/Endpoint.h **** 			/** Discards four bytes from the currently selected endpoint's bank, for OUT direction endpoints
 743:../../LUFA/Drivers/USB/LowLevel/Endpoint.h **** 			 *
 744:../../LUFA/Drivers/USB/LowLevel/Endpoint.h **** 			 *  \ingroup Group_EndpointPrimitiveRW
 745:../../LUFA/Drivers/USB/LowLevel/Endpoint.h **** 			 */
 746:../../LUFA/Drivers/USB/LowLevel/Endpoint.h **** 			static inline void Endpoint_Discard_DWord(void) ATTR_ALWAYS_INLINE;
 747:../../LUFA/Drivers/USB/LowLevel/Endpoint.h **** 			static inline void Endpoint_Discard_DWord(void)
 748:../../LUFA/Drivers/USB/LowLevel/Endpoint.h **** 			{
 749:../../LUFA/Drivers/USB/LowLevel/Endpoint.h **** 				uint8_t Dummy;
 750:../../LUFA/Drivers/USB/LowLevel/Endpoint.h **** 				
 751:../../LUFA/Drivers/USB/LowLevel/Endpoint.h **** 				Dummy = UEDATX;
 752:../../LUFA/Drivers/USB/LowLevel/Endpoint.h **** 				Dummy = UEDATX;
 753:../../LUFA/Drivers/USB/LowLevel/Endpoint.h **** 				Dummy = UEDATX;
 754:../../LUFA/Drivers/USB/LowLevel/Endpoint.h **** 				Dummy = UEDATX;
 755:../../LUFA/Drivers/USB/LowLevel/Endpoint.h **** 			}
 756:../../LUFA/Drivers/USB/LowLevel/Endpoint.h **** 
 757:../../LUFA/Drivers/USB/LowLevel/Endpoint.h **** 		/* External Variables: */
 758:../../LUFA/Drivers/USB/LowLevel/Endpoint.h **** 			/** Global indicating the maximum packet size of the default control endpoint located at address
 759:../../LUFA/Drivers/USB/LowLevel/Endpoint.h **** 			 *  0 in the device. This value is set to the value indicated in the device descriptor in the us
 760:../../LUFA/Drivers/USB/LowLevel/Endpoint.h **** 			 *  project once the USB interface is initialized into device mode.
 761:../../LUFA/Drivers/USB/LowLevel/Endpoint.h **** 			 *
 762:../../LUFA/Drivers/USB/LowLevel/Endpoint.h **** 			 *  If space is an issue, it is possible to fix this to a static value by defining the control
 763:../../LUFA/Drivers/USB/LowLevel/Endpoint.h **** 			 *  endpoint size in the FIXED_CONTROL_ENDPOINT_SIZE token passed to the compiler in the makefil
 764:../../LUFA/Drivers/USB/LowLevel/Endpoint.h **** 			 *  via the -D switch. When a fixed control endpoint size is used, the size is no longer dynamic
 765:../../LUFA/Drivers/USB/LowLevel/Endpoint.h **** 			 *  read from the descriptors at runtime and instead fixed to the given value. When used, it is
 766:../../LUFA/Drivers/USB/LowLevel/Endpoint.h **** 			 *  important that the descriptor control endpoint size value matches the size given as the
 767:../../LUFA/Drivers/USB/LowLevel/Endpoint.h **** 			 *  FIXED_CONTROL_ENDPOINT_SIZE token - it is recommended that the FIXED_CONTROL_ENDPOINT_SIZE t
 768:../../LUFA/Drivers/USB/LowLevel/Endpoint.h **** 			 *  be used in the descriptors to ensure this.
 769:../../LUFA/Drivers/USB/LowLevel/Endpoint.h **** 			 *
 770:../../LUFA/Drivers/USB/LowLevel/Endpoint.h **** 			 *  \note This variable should be treated as read-only in the user application, and never manual
 771:../../LUFA/Drivers/USB/LowLevel/Endpoint.h **** 			 *        changed in value.
 772:../../LUFA/Drivers/USB/LowLevel/Endpoint.h **** 			 */
 773:../../LUFA/Drivers/USB/LowLevel/Endpoint.h **** 			#if (!defined(FIXED_CONTROL_ENDPOINT_SIZE) || defined(__DOXYGEN__))
 774:../../LUFA/Drivers/USB/LowLevel/Endpoint.h **** 				extern uint8_t USB_ControlEndpointSize;
 775:../../LUFA/Drivers/USB/LowLevel/Endpoint.h **** 			#else
 776:../../LUFA/Drivers/USB/LowLevel/Endpoint.h **** 				#define USB_ControlEndpointSize FIXED_CONTROL_ENDPOINT_SIZE
 777:../../LUFA/Drivers/USB/LowLevel/Endpoint.h **** 			#endif
 778:../../LUFA/Drivers/USB/LowLevel/Endpoint.h **** 
 779:../../LUFA/Drivers/USB/LowLevel/Endpoint.h **** 		/* Function Prototypes: */
 780:../../LUFA/Drivers/USB/LowLevel/Endpoint.h **** 			#if !defined(NO_STREAM_CALLBACKS) || defined(__DOXYGEN__)
 781:../../LUFA/Drivers/USB/LowLevel/Endpoint.h **** 				#define __CALLBACK_PARAM     , StreamCallbackPtr_t Callback
 782:../../LUFA/Drivers/USB/LowLevel/Endpoint.h **** 			#else
 783:../../LUFA/Drivers/USB/LowLevel/Endpoint.h **** 				#define __CALLBACK_PARAM
 784:../../LUFA/Drivers/USB/LowLevel/Endpoint.h **** 			#endif
 785:../../LUFA/Drivers/USB/LowLevel/Endpoint.h **** 		
 786:../../LUFA/Drivers/USB/LowLevel/Endpoint.h **** 			/** Configures the specified endpoint number with the given endpoint type, direction, bank size
 787:../../LUFA/Drivers/USB/LowLevel/Endpoint.h **** 			 *  and banking mode. Endpoints should be allocated in ascending order by their address in the
 788:../../LUFA/Drivers/USB/LowLevel/Endpoint.h **** 			 *  device (i.e. endpoint 1 should be configured before endpoint 2 and so on) to prevent fragmen
 789:../../LUFA/Drivers/USB/LowLevel/Endpoint.h **** 			 *  of the USB FIFO memory.
 790:../../LUFA/Drivers/USB/LowLevel/Endpoint.h **** 			 *
 791:../../LUFA/Drivers/USB/LowLevel/Endpoint.h **** 			 *  The endpoint type may be one of the EP_TYPE_* macros listed in LowLevel.h and the direction
 792:../../LUFA/Drivers/USB/LowLevel/Endpoint.h **** 			 *  may be either \ref ENDPOINT_DIR_OUT or \ref ENDPOINT_DIR_IN.
 793:../../LUFA/Drivers/USB/LowLevel/Endpoint.h **** 			 *
 794:../../LUFA/Drivers/USB/LowLevel/Endpoint.h **** 			 *  The bank size must indicate the maximum packet size that the endpoint can handle. Different
 795:../../LUFA/Drivers/USB/LowLevel/Endpoint.h **** 			 *  endpoint numbers can handle different maximum packet sizes - refer to the chosen USB AVR's
 796:../../LUFA/Drivers/USB/LowLevel/Endpoint.h **** 			 *  datasheet to determine the maximum bank size for each endpoint.
 797:../../LUFA/Drivers/USB/LowLevel/Endpoint.h **** 			 *
 798:../../LUFA/Drivers/USB/LowLevel/Endpoint.h **** 			 *  The banking mode may be either \ref ENDPOINT_BANK_SINGLE or \ref ENDPOINT_BANK_DOUBLE.
 799:../../LUFA/Drivers/USB/LowLevel/Endpoint.h **** 			 *
 800:../../LUFA/Drivers/USB/LowLevel/Endpoint.h **** 			 *  \note The default control endpoint should not be manually configured by the user application
 801:../../LUFA/Drivers/USB/LowLevel/Endpoint.h **** 			 *        it is automatically configured by the library internally.
 802:../../LUFA/Drivers/USB/LowLevel/Endpoint.h **** 			 *        \n\n
 803:../../LUFA/Drivers/USB/LowLevel/Endpoint.h **** 			 *
 804:../../LUFA/Drivers/USB/LowLevel/Endpoint.h **** 			 *  \note This routine will select the specified endpoint, and the endpoint will remain selected
 805:../../LUFA/Drivers/USB/LowLevel/Endpoint.h **** 			 *        once the routine completes regardless of if the endpoint configuration succeeds.
 806:../../LUFA/Drivers/USB/LowLevel/Endpoint.h **** 			 *
 807:../../LUFA/Drivers/USB/LowLevel/Endpoint.h **** 			 *  \return Boolean true if the configuration succeeded, false otherwise.
 808:../../LUFA/Drivers/USB/LowLevel/Endpoint.h **** 			 */
 809:../../LUFA/Drivers/USB/LowLevel/Endpoint.h **** 			bool Endpoint_ConfigureEndpoint(const uint8_t  Number,
 810:../../LUFA/Drivers/USB/LowLevel/Endpoint.h **** 			                                const uint8_t Type,
 811:../../LUFA/Drivers/USB/LowLevel/Endpoint.h **** 			                                const uint8_t Direction,
 812:../../LUFA/Drivers/USB/LowLevel/Endpoint.h **** 			                                const uint16_t Size,
 813:../../LUFA/Drivers/USB/LowLevel/Endpoint.h **** 			                                const uint8_t Banks);
 814:../../LUFA/Drivers/USB/LowLevel/Endpoint.h **** 
 815:../../LUFA/Drivers/USB/LowLevel/Endpoint.h **** 			/** Spin-loops until the currently selected non-control endpoint is ready for the next packet of
 816:../../LUFA/Drivers/USB/LowLevel/Endpoint.h **** 			 *  to be read or written to it.
 817:../../LUFA/Drivers/USB/LowLevel/Endpoint.h **** 			 *
 818:../../LUFA/Drivers/USB/LowLevel/Endpoint.h **** 			 *  \note This routine should not be called on CONTROL type endpoints.
 819:../../LUFA/Drivers/USB/LowLevel/Endpoint.h **** 			 *
 820:../../LUFA/Drivers/USB/LowLevel/Endpoint.h **** 			 *  \ingroup Group_EndpointRW
 821:../../LUFA/Drivers/USB/LowLevel/Endpoint.h **** 			 *
 822:../../LUFA/Drivers/USB/LowLevel/Endpoint.h **** 			 *  \return A value from the \ref Endpoint_WaitUntilReady_ErrorCodes_t enum.
 823:../../LUFA/Drivers/USB/LowLevel/Endpoint.h **** 			 */
 824:../../LUFA/Drivers/USB/LowLevel/Endpoint.h **** 			uint8_t Endpoint_WaitUntilReady(void);
 825:../../LUFA/Drivers/USB/LowLevel/Endpoint.h **** 			
 826:../../LUFA/Drivers/USB/LowLevel/Endpoint.h **** 			/** Completes the status stage of a control transfer on a CONTROL type endpoint automatically,
 827:../../LUFA/Drivers/USB/LowLevel/Endpoint.h **** 			 *  with respect to the data direction. This is a convenience function which can be used to
 828:../../LUFA/Drivers/USB/LowLevel/Endpoint.h **** 			 *  simplify user control request handling.
 829:../../LUFA/Drivers/USB/LowLevel/Endpoint.h **** 			 */
 830:../../LUFA/Drivers/USB/LowLevel/Endpoint.h **** 			void Endpoint_ClearStatusStage(void);
 831:../../LUFA/Drivers/USB/LowLevel/Endpoint.h **** 
 832:../../LUFA/Drivers/USB/LowLevel/Endpoint.h **** 			/** Reads and discards the given number of bytes from the endpoint from the given buffer,
 833:../../LUFA/Drivers/USB/LowLevel/Endpoint.h **** 			 *  discarding fully read packets from the host as needed. The last packet is not automatically
 834:../../LUFA/Drivers/USB/LowLevel/Endpoint.h **** 			 *  discarded once the remaining bytes has been read; the user is responsible for manually
 835:../../LUFA/Drivers/USB/LowLevel/Endpoint.h **** 			 *  discarding the last packet from the host via the \ref Endpoint_ClearOUT() macro. Between
 836:../../LUFA/Drivers/USB/LowLevel/Endpoint.h **** 			 *  each USB packet, the given stream callback function is executed repeatedly until the next
 837:../../LUFA/Drivers/USB/LowLevel/Endpoint.h **** 			 *  packet is ready, allowing for early aborts of stream transfers.
 838:../../LUFA/Drivers/USB/LowLevel/Endpoint.h **** 			 *
 839:../../LUFA/Drivers/USB/LowLevel/Endpoint.h **** 			 *	The callback routine should be created according to the information in \ref Group_StreamCallb
 840:../../LUFA/Drivers/USB/LowLevel/Endpoint.h **** 			 *  If the token NO_STREAM_CALLBACKS is passed via the -D option to the compiler, stream callbac
 841:../../LUFA/Drivers/USB/LowLevel/Endpoint.h **** 			 *  disabled and this function has the Callback parameter omitted.
 842:../../LUFA/Drivers/USB/LowLevel/Endpoint.h **** 			 *
 843:../../LUFA/Drivers/USB/LowLevel/Endpoint.h **** 			 *  \note This routine should not be used on CONTROL type endpoints.
 844:../../LUFA/Drivers/USB/LowLevel/Endpoint.h **** 			 *
 845:../../LUFA/Drivers/USB/LowLevel/Endpoint.h **** 			 *  \ingroup Group_EndpointStreamRW
 846:../../LUFA/Drivers/USB/LowLevel/Endpoint.h **** 			 *
 847:../../LUFA/Drivers/USB/LowLevel/Endpoint.h **** 			 *  \param[in] Length    Number of bytes to send via the currently selected endpoint.
 848:../../LUFA/Drivers/USB/LowLevel/Endpoint.h **** 			 *  \param[in] Callback  Name of a callback routine to call between successive USB packet transf
 849:../../LUFA/Drivers/USB/LowLevel/Endpoint.h **** 			 *
 850:../../LUFA/Drivers/USB/LowLevel/Endpoint.h **** 			 *  \return A value from the \ref Endpoint_Stream_RW_ErrorCodes_t enum.
 851:../../LUFA/Drivers/USB/LowLevel/Endpoint.h **** 			 */
 852:../../LUFA/Drivers/USB/LowLevel/Endpoint.h **** 			uint8_t Endpoint_Discard_Stream(uint16_t Length
 853:../../LUFA/Drivers/USB/LowLevel/Endpoint.h **** 			                                __CALLBACK_PARAM);
 854:../../LUFA/Drivers/USB/LowLevel/Endpoint.h **** 
 855:../../LUFA/Drivers/USB/LowLevel/Endpoint.h **** 			/** Writes the given number of bytes to the endpoint from the given buffer in little endian,
 856:../../LUFA/Drivers/USB/LowLevel/Endpoint.h **** 			 *  sending full packets to the host as needed. The last packet filled is not automatically sent
 857:../../LUFA/Drivers/USB/LowLevel/Endpoint.h **** 			 *  the user is responsible for manually sending the last written packet to the host via the
 858:../../LUFA/Drivers/USB/LowLevel/Endpoint.h **** 			 *  \ref Endpoint_ClearIN() macro. Between each USB packet, the given stream callback function
 859:../../LUFA/Drivers/USB/LowLevel/Endpoint.h **** 			 *  is executed repeatedly until the endpoint is ready to accept the next packet, allowing for e
 860:../../LUFA/Drivers/USB/LowLevel/Endpoint.h **** 			 *  aborts of stream transfers.
 861:../../LUFA/Drivers/USB/LowLevel/Endpoint.h **** 			 *
 862:../../LUFA/Drivers/USB/LowLevel/Endpoint.h **** 			 *	The callback routine should be created according to the information in \ref Group_StreamCallb
 863:../../LUFA/Drivers/USB/LowLevel/Endpoint.h **** 			 *  If the token NO_STREAM_CALLBACKS is passed via the -D option to the compiler, stream callbac
 864:../../LUFA/Drivers/USB/LowLevel/Endpoint.h **** 			 *  disabled and this function has the Callback parameter omitted.
 865:../../LUFA/Drivers/USB/LowLevel/Endpoint.h **** 			 *
 866:../../LUFA/Drivers/USB/LowLevel/Endpoint.h **** 			 *  \note This routine should not be used on CONTROL type endpoints.
 867:../../LUFA/Drivers/USB/LowLevel/Endpoint.h **** 			 *
 868:../../LUFA/Drivers/USB/LowLevel/Endpoint.h **** 			 *  \ingroup Group_EndpointStreamRW
 869:../../LUFA/Drivers/USB/LowLevel/Endpoint.h **** 			 *
 870:../../LUFA/Drivers/USB/LowLevel/Endpoint.h **** 			 *  \param[in] Buffer    Pointer to the source data buffer to read from.
 871:../../LUFA/Drivers/USB/LowLevel/Endpoint.h **** 			 *  \param[in] Length    Number of bytes to read for the currently selected endpoint into the bu
 872:../../LUFA/Drivers/USB/LowLevel/Endpoint.h **** 			 *  \param[in] Callback  Name of a callback routine to call between successive USB packet transf
 873:../../LUFA/Drivers/USB/LowLevel/Endpoint.h **** 			 *
 874:../../LUFA/Drivers/USB/LowLevel/Endpoint.h **** 			 *  \return A value from the \ref Endpoint_Stream_RW_ErrorCodes_t enum.
 875:../../LUFA/Drivers/USB/LowLevel/Endpoint.h **** 			 */
 876:../../LUFA/Drivers/USB/LowLevel/Endpoint.h **** 			uint8_t Endpoint_Write_Stream_LE(const void* Buffer,
 877:../../LUFA/Drivers/USB/LowLevel/Endpoint.h **** 			                                 uint16_t Length
 878:../../LUFA/Drivers/USB/LowLevel/Endpoint.h **** 			                                 __CALLBACK_PARAM) ATTR_NON_NULL_PTR_ARG(1);
 879:../../LUFA/Drivers/USB/LowLevel/Endpoint.h **** 
 880:../../LUFA/Drivers/USB/LowLevel/Endpoint.h **** 			/** EEPROM buffer source version of \ref Endpoint_Write_Stream_LE().
 881:../../LUFA/Drivers/USB/LowLevel/Endpoint.h **** 			 *
 882:../../LUFA/Drivers/USB/LowLevel/Endpoint.h **** 			 *  \ingroup Group_EndpointStreamRW
 883:../../LUFA/Drivers/USB/LowLevel/Endpoint.h **** 			 *
 884:../../LUFA/Drivers/USB/LowLevel/Endpoint.h **** 			 *  \param[in] Buffer    Pointer to the source data buffer to read from.
 885:../../LUFA/Drivers/USB/LowLevel/Endpoint.h **** 			 *  \param[in] Length    Number of bytes to read for the currently selected endpoint into the bu
 886:../../LUFA/Drivers/USB/LowLevel/Endpoint.h **** 			 *  \param[in] Callback  Name of a callback routine to call between successive USB packet transf
 887:../../LUFA/Drivers/USB/LowLevel/Endpoint.h **** 			 *
 888:../../LUFA/Drivers/USB/LowLevel/Endpoint.h **** 			 *  \return A value from the \ref Endpoint_Stream_RW_ErrorCodes_t enum.
 889:../../LUFA/Drivers/USB/LowLevel/Endpoint.h **** 			 */
 890:../../LUFA/Drivers/USB/LowLevel/Endpoint.h **** 			uint8_t Endpoint_Write_EStream_LE(const void* Buffer,
 891:../../LUFA/Drivers/USB/LowLevel/Endpoint.h **** 			                                  uint16_t Length
 892:../../LUFA/Drivers/USB/LowLevel/Endpoint.h **** 			                                  __CALLBACK_PARAM) ATTR_NON_NULL_PTR_ARG(1);
 893:../../LUFA/Drivers/USB/LowLevel/Endpoint.h **** 
 894:../../LUFA/Drivers/USB/LowLevel/Endpoint.h **** 			/** FLASH buffer source version of \ref Endpoint_Write_Stream_LE().
 895:../../LUFA/Drivers/USB/LowLevel/Endpoint.h **** 			 *
 896:../../LUFA/Drivers/USB/LowLevel/Endpoint.h **** 			 *  \pre The FLASH data must be located in the first 64KB of FLASH for this function to work cor
 897:../../LUFA/Drivers/USB/LowLevel/Endpoint.h **** 			 *
 898:../../LUFA/Drivers/USB/LowLevel/Endpoint.h **** 			 *  \ingroup Group_EndpointStreamRW
 899:../../LUFA/Drivers/USB/LowLevel/Endpoint.h **** 			 *
 900:../../LUFA/Drivers/USB/LowLevel/Endpoint.h **** 			 *  \param[in] Buffer    Pointer to the source data buffer to read from.
 901:../../LUFA/Drivers/USB/LowLevel/Endpoint.h **** 			 *  \param[in] Length    Number of bytes to read for the currently selected endpoint into the bu
 902:../../LUFA/Drivers/USB/LowLevel/Endpoint.h **** 			 *  \param[in] Callback  Name of a callback routine to call between successive USB packet transf
 903:../../LUFA/Drivers/USB/LowLevel/Endpoint.h **** 			 *
 904:../../LUFA/Drivers/USB/LowLevel/Endpoint.h **** 			 *  \return A value from the \ref Endpoint_Stream_RW_ErrorCodes_t enum.
 905:../../LUFA/Drivers/USB/LowLevel/Endpoint.h **** 			 */
 906:../../LUFA/Drivers/USB/LowLevel/Endpoint.h **** 			uint8_t Endpoint_Write_PStream_LE(const void* Buffer,
 907:../../LUFA/Drivers/USB/LowLevel/Endpoint.h **** 			                                  uint16_t Length
 908:../../LUFA/Drivers/USB/LowLevel/Endpoint.h **** 			                                  __CALLBACK_PARAM) ATTR_NON_NULL_PTR_ARG(1);
 909:../../LUFA/Drivers/USB/LowLevel/Endpoint.h **** 
 910:../../LUFA/Drivers/USB/LowLevel/Endpoint.h **** 			/** Writes the given number of bytes to the endpoint from the given buffer in big endian,
 911:../../LUFA/Drivers/USB/LowLevel/Endpoint.h **** 			 *  sending full packets to the host as needed. The last packet filled is not automatically sent
 912:../../LUFA/Drivers/USB/LowLevel/Endpoint.h **** 			 *  the user is responsible for manually sending the last written packet to the host via the
 913:../../LUFA/Drivers/USB/LowLevel/Endpoint.h **** 			 *  \ref Endpoint_ClearIN() macro. Between each USB packet, the given stream callback function
 914:../../LUFA/Drivers/USB/LowLevel/Endpoint.h **** 			 *  is executed repeatedly until the endpoint is ready to accept the next packet, allowing for e
 915:../../LUFA/Drivers/USB/LowLevel/Endpoint.h **** 			 *  aborts of stream transfers.
 916:../../LUFA/Drivers/USB/LowLevel/Endpoint.h **** 			 *
 917:../../LUFA/Drivers/USB/LowLevel/Endpoint.h **** 			 *	The callback routine should be created according to the information in \ref Group_StreamCallb
 918:../../LUFA/Drivers/USB/LowLevel/Endpoint.h **** 			 *  If the token NO_STREAM_CALLBACKS is passed via the -D option to the compiler, stream callbac
 919:../../LUFA/Drivers/USB/LowLevel/Endpoint.h **** 			 *  disabled and this function has the Callback parameter omitted.
 920:../../LUFA/Drivers/USB/LowLevel/Endpoint.h **** 			 *
 921:../../LUFA/Drivers/USB/LowLevel/Endpoint.h **** 			 *  \note This routine should not be used on CONTROL type endpoints.
 922:../../LUFA/Drivers/USB/LowLevel/Endpoint.h **** 			 *
 923:../../LUFA/Drivers/USB/LowLevel/Endpoint.h **** 			 *  \ingroup Group_EndpointStreamRW
 924:../../LUFA/Drivers/USB/LowLevel/Endpoint.h **** 			 *
 925:../../LUFA/Drivers/USB/LowLevel/Endpoint.h **** 			 *  \param[in] Buffer    Pointer to the source data buffer to read from.
 926:../../LUFA/Drivers/USB/LowLevel/Endpoint.h **** 			 *  \param[in] Length    Number of bytes to read for the currently selected endpoint into the bu
 927:../../LUFA/Drivers/USB/LowLevel/Endpoint.h **** 			 *  \param[in] Callback  Name of a callback routine to call between successive USB packet transf
 928:../../LUFA/Drivers/USB/LowLevel/Endpoint.h **** 			 *
 929:../../LUFA/Drivers/USB/LowLevel/Endpoint.h **** 			 *  \return A value from the \ref Endpoint_Stream_RW_ErrorCodes_t enum.
 930:../../LUFA/Drivers/USB/LowLevel/Endpoint.h **** 			 */
 931:../../LUFA/Drivers/USB/LowLevel/Endpoint.h **** 			uint8_t Endpoint_Write_Stream_BE(const void* Buffer,
 932:../../LUFA/Drivers/USB/LowLevel/Endpoint.h **** 			                                 uint16_t Length
 933:../../LUFA/Drivers/USB/LowLevel/Endpoint.h **** 			                                 __CALLBACK_PARAM) ATTR_NON_NULL_PTR_ARG(1);
 934:../../LUFA/Drivers/USB/LowLevel/Endpoint.h **** 
 935:../../LUFA/Drivers/USB/LowLevel/Endpoint.h **** 			/** EEPROM buffer source version of \ref Endpoint_Write_Stream_BE().
 936:../../LUFA/Drivers/USB/LowLevel/Endpoint.h **** 			 *
 937:../../LUFA/Drivers/USB/LowLevel/Endpoint.h **** 			 *  \ingroup Group_EndpointStreamRW
 938:../../LUFA/Drivers/USB/LowLevel/Endpoint.h **** 			 *
 939:../../LUFA/Drivers/USB/LowLevel/Endpoint.h **** 			 *  \param[in] Buffer    Pointer to the source data buffer to read from.
 940:../../LUFA/Drivers/USB/LowLevel/Endpoint.h **** 			 *  \param[in] Length    Number of bytes to read for the currently selected endpoint into the bu
 941:../../LUFA/Drivers/USB/LowLevel/Endpoint.h **** 			 *  \param[in] Callback  Name of a callback routine to call between successive USB packet transf
 942:../../LUFA/Drivers/USB/LowLevel/Endpoint.h **** 			 *
 943:../../LUFA/Drivers/USB/LowLevel/Endpoint.h **** 			 *  \return A value from the \ref Endpoint_Stream_RW_ErrorCodes_t enum.
 944:../../LUFA/Drivers/USB/LowLevel/Endpoint.h **** 			 */
 945:../../LUFA/Drivers/USB/LowLevel/Endpoint.h **** 			uint8_t Endpoint_Write_EStream_BE(const void* Buffer,
 946:../../LUFA/Drivers/USB/LowLevel/Endpoint.h **** 			                                  uint16_t Length
 947:../../LUFA/Drivers/USB/LowLevel/Endpoint.h **** 			                                  __CALLBACK_PARAM) ATTR_NON_NULL_PTR_ARG(1);
 948:../../LUFA/Drivers/USB/LowLevel/Endpoint.h **** 
 949:../../LUFA/Drivers/USB/LowLevel/Endpoint.h **** 			/** FLASH buffer source version of \ref Endpoint_Write_Stream_BE().
 950:../../LUFA/Drivers/USB/LowLevel/Endpoint.h **** 			 *
 951:../../LUFA/Drivers/USB/LowLevel/Endpoint.h **** 			 *  \pre The FLASH data must be located in the first 64KB of FLASH for this function to work cor
 952:../../LUFA/Drivers/USB/LowLevel/Endpoint.h **** 			 *
 953:../../LUFA/Drivers/USB/LowLevel/Endpoint.h **** 			 *  \ingroup Group_EndpointStreamRW
 954:../../LUFA/Drivers/USB/LowLevel/Endpoint.h **** 			 *
 955:../../LUFA/Drivers/USB/LowLevel/Endpoint.h **** 			 *  \param[in] Buffer    Pointer to the source data buffer to read from.
 956:../../LUFA/Drivers/USB/LowLevel/Endpoint.h **** 			 *  \param[in] Length    Number of bytes to read for the currently selected endpoint into the bu
 957:../../LUFA/Drivers/USB/LowLevel/Endpoint.h **** 			 *  \param[in] Callback  Name of a callback routine to call between successive USB packet transf
 958:../../LUFA/Drivers/USB/LowLevel/Endpoint.h **** 			 *
 959:../../LUFA/Drivers/USB/LowLevel/Endpoint.h **** 			 *  \return A value from the \ref Endpoint_Stream_RW_ErrorCodes_t enum.
 960:../../LUFA/Drivers/USB/LowLevel/Endpoint.h **** 			 */
 961:../../LUFA/Drivers/USB/LowLevel/Endpoint.h **** 			uint8_t Endpoint_Write_PStream_BE(const void* Buffer,
 962:../../LUFA/Drivers/USB/LowLevel/Endpoint.h **** 			                                  uint16_t Length
 963:../../LUFA/Drivers/USB/LowLevel/Endpoint.h **** 			                                  __CALLBACK_PARAM) ATTR_NON_NULL_PTR_ARG(1);
 964:../../LUFA/Drivers/USB/LowLevel/Endpoint.h **** 
 965:../../LUFA/Drivers/USB/LowLevel/Endpoint.h **** 			/** Reads the given number of bytes from the endpoint from the given buffer in little endian,
 966:../../LUFA/Drivers/USB/LowLevel/Endpoint.h **** 			 *  discarding fully read packets from the host as needed. The last packet is not automatically
 967:../../LUFA/Drivers/USB/LowLevel/Endpoint.h **** 			 *  discarded once the remaining bytes has been read; the user is responsible for manually
 968:../../LUFA/Drivers/USB/LowLevel/Endpoint.h **** 			 *  discarding the last packet from the host via the \ref Endpoint_ClearOUT() macro. Between
 969:../../LUFA/Drivers/USB/LowLevel/Endpoint.h **** 			 *  each USB packet, the given stream callback function is executed repeatedly until the endpoin
 970:../../LUFA/Drivers/USB/LowLevel/Endpoint.h **** 			 *  is ready to accept the next packet, allowing for early aborts of stream transfers.
 971:../../LUFA/Drivers/USB/LowLevel/Endpoint.h **** 			 *
 972:../../LUFA/Drivers/USB/LowLevel/Endpoint.h **** 			 *	The callback routine should be created according to the information in \ref Group_StreamCallb
 973:../../LUFA/Drivers/USB/LowLevel/Endpoint.h **** 			 *  If the token NO_STREAM_CALLBACKS is passed via the -D option to the compiler, stream callbac
 974:../../LUFA/Drivers/USB/LowLevel/Endpoint.h **** 			 *  disabled and this function has the Callback parameter omitted.
 975:../../LUFA/Drivers/USB/LowLevel/Endpoint.h **** 			 *
 976:../../LUFA/Drivers/USB/LowLevel/Endpoint.h **** 			 *  \note This routine should not be used on CONTROL type endpoints.
 977:../../LUFA/Drivers/USB/LowLevel/Endpoint.h **** 			 *
 978:../../LUFA/Drivers/USB/LowLevel/Endpoint.h **** 			 *  \ingroup Group_EndpointStreamRW
 979:../../LUFA/Drivers/USB/LowLevel/Endpoint.h **** 			 *
 980:../../LUFA/Drivers/USB/LowLevel/Endpoint.h **** 			 *  \param[out] Buffer    Pointer to the destination data buffer to write to.
 981:../../LUFA/Drivers/USB/LowLevel/Endpoint.h **** 			 *  \param[in]  Length    Number of bytes to send via the currently selected endpoint.
 982:../../LUFA/Drivers/USB/LowLevel/Endpoint.h **** 			 *  \param[in]  Callback  Name of a callback routine to call between successive USB packet trans
 983:../../LUFA/Drivers/USB/LowLevel/Endpoint.h **** 			 *
 984:../../LUFA/Drivers/USB/LowLevel/Endpoint.h **** 			 *  \return A value from the \ref Endpoint_Stream_RW_ErrorCodes_t enum.
 985:../../LUFA/Drivers/USB/LowLevel/Endpoint.h **** 			 */
 986:../../LUFA/Drivers/USB/LowLevel/Endpoint.h **** 			uint8_t Endpoint_Read_Stream_LE(void* Buffer,
 987:../../LUFA/Drivers/USB/LowLevel/Endpoint.h **** 			                                uint16_t Length
 988:../../LUFA/Drivers/USB/LowLevel/Endpoint.h **** 			                                __CALLBACK_PARAM) ATTR_NON_NULL_PTR_ARG(1);
 989:../../LUFA/Drivers/USB/LowLevel/Endpoint.h **** 
 990:../../LUFA/Drivers/USB/LowLevel/Endpoint.h **** 			/** EEPROM buffer source version of \ref Endpoint_Read_Stream_LE().
 991:../../LUFA/Drivers/USB/LowLevel/Endpoint.h **** 			 *
 992:../../LUFA/Drivers/USB/LowLevel/Endpoint.h **** 			 *  \ingroup Group_EndpointStreamRW
 993:../../LUFA/Drivers/USB/LowLevel/Endpoint.h **** 			 *
 994:../../LUFA/Drivers/USB/LowLevel/Endpoint.h **** 			 *  \param[out] Buffer    Pointer to the destination data buffer to write to, located in EEPROM 
 995:../../LUFA/Drivers/USB/LowLevel/Endpoint.h **** 			 *  \param[in]  Length    Number of bytes to send via the currently selected endpoint.
 996:../../LUFA/Drivers/USB/LowLevel/Endpoint.h **** 			 *  \param[in]  Callback  Name of a callback routine to call between successive USB packet trans
 997:../../LUFA/Drivers/USB/LowLevel/Endpoint.h **** 			 *
 998:../../LUFA/Drivers/USB/LowLevel/Endpoint.h **** 			 *  \return A value from the \ref Endpoint_Stream_RW_ErrorCodes_t enum.
 999:../../LUFA/Drivers/USB/LowLevel/Endpoint.h **** 			 */
1000:../../LUFA/Drivers/USB/LowLevel/Endpoint.h **** 			uint8_t Endpoint_Read_EStream_LE(void* Buffer,
1001:../../LUFA/Drivers/USB/LowLevel/Endpoint.h **** 			                                 uint16_t Length
1002:../../LUFA/Drivers/USB/LowLevel/Endpoint.h **** 			                                 __CALLBACK_PARAM) ATTR_NON_NULL_PTR_ARG(1);
1003:../../LUFA/Drivers/USB/LowLevel/Endpoint.h **** 			
1004:../../LUFA/Drivers/USB/LowLevel/Endpoint.h **** 			/** Reads the given number of bytes from the endpoint from the given buffer in big endian,
1005:../../LUFA/Drivers/USB/LowLevel/Endpoint.h **** 			 *  discarding fully read packets from the host as needed. The last packet is not automatically
1006:../../LUFA/Drivers/USB/LowLevel/Endpoint.h **** 			 *  discarded once the remaining bytes has been read; the user is responsible for manually
1007:../../LUFA/Drivers/USB/LowLevel/Endpoint.h **** 			 *  discarding the last packet from the host via the \ref Endpoint_ClearOUT() macro. Between
1008:../../LUFA/Drivers/USB/LowLevel/Endpoint.h **** 			 *  each USB packet, the given stream callback function is executed repeatedly until the endpoin
1009:../../LUFA/Drivers/USB/LowLevel/Endpoint.h **** 			 *  is ready to accept the next packet, allowing for early aborts of stream transfers.
1010:../../LUFA/Drivers/USB/LowLevel/Endpoint.h **** 			 *
1011:../../LUFA/Drivers/USB/LowLevel/Endpoint.h **** 			 *	The callback routine should be created according to the information in \ref Group_StreamCallb
1012:../../LUFA/Drivers/USB/LowLevel/Endpoint.h **** 			 *  If the token NO_STREAM_CALLBACKS is passed via the -D option to the compiler, stream callbac
1013:../../LUFA/Drivers/USB/LowLevel/Endpoint.h **** 			 *  disabled and this function has the Callback parameter omitted.
1014:../../LUFA/Drivers/USB/LowLevel/Endpoint.h **** 			 *
1015:../../LUFA/Drivers/USB/LowLevel/Endpoint.h **** 			 *  \note This routine should not be used on CONTROL type endpoints.
1016:../../LUFA/Drivers/USB/LowLevel/Endpoint.h **** 			 *
1017:../../LUFA/Drivers/USB/LowLevel/Endpoint.h **** 			 *  \ingroup Group_EndpointStreamRW
1018:../../LUFA/Drivers/USB/LowLevel/Endpoint.h **** 			 *
1019:../../LUFA/Drivers/USB/LowLevel/Endpoint.h **** 			 *  \param[out] Buffer    Pointer to the destination data buffer to write to.
1020:../../LUFA/Drivers/USB/LowLevel/Endpoint.h **** 			 *  \param[in]  Length    Number of bytes to send via the currently selected endpoint.
1021:../../LUFA/Drivers/USB/LowLevel/Endpoint.h **** 			 *  \param[in]  Callback  Name of a callback routine to call between successive USB packet trans
1022:../../LUFA/Drivers/USB/LowLevel/Endpoint.h **** 			 *
1023:../../LUFA/Drivers/USB/LowLevel/Endpoint.h **** 			 *  \return A value from the \ref Endpoint_Stream_RW_ErrorCodes_t enum.
1024:../../LUFA/Drivers/USB/LowLevel/Endpoint.h **** 			 */
1025:../../LUFA/Drivers/USB/LowLevel/Endpoint.h **** 			uint8_t Endpoint_Read_Stream_BE(void* Buffer,
1026:../../LUFA/Drivers/USB/LowLevel/Endpoint.h **** 			                                uint16_t Length
1027:../../LUFA/Drivers/USB/LowLevel/Endpoint.h **** 			                                __CALLBACK_PARAM) ATTR_NON_NULL_PTR_ARG(1);
1028:../../LUFA/Drivers/USB/LowLevel/Endpoint.h **** 
1029:../../LUFA/Drivers/USB/LowLevel/Endpoint.h **** 			/** EEPROM buffer source version of \ref Endpoint_Read_Stream_BE().
1030:../../LUFA/Drivers/USB/LowLevel/Endpoint.h **** 			 *
1031:../../LUFA/Drivers/USB/LowLevel/Endpoint.h **** 			 *  \ingroup Group_EndpointStreamRW
1032:../../LUFA/Drivers/USB/LowLevel/Endpoint.h **** 			 *
1033:../../LUFA/Drivers/USB/LowLevel/Endpoint.h **** 			 *  \param[out] Buffer    Pointer to the destination data buffer to write to, located in EEPROM 
1034:../../LUFA/Drivers/USB/LowLevel/Endpoint.h **** 			 *  \param[in]  Length    Number of bytes to send via the currently selected endpoint.
1035:../../LUFA/Drivers/USB/LowLevel/Endpoint.h **** 			 *  \param[in]  Callback  Name of a callback routine to call between successive USB packet trans
1036:../../LUFA/Drivers/USB/LowLevel/Endpoint.h **** 			 *
1037:../../LUFA/Drivers/USB/LowLevel/Endpoint.h **** 			 *  \return A value from the \ref Endpoint_Stream_RW_ErrorCodes_t enum.
1038:../../LUFA/Drivers/USB/LowLevel/Endpoint.h **** 			 */
1039:../../LUFA/Drivers/USB/LowLevel/Endpoint.h **** 			uint8_t Endpoint_Read_EStream_BE(void* Buffer,
1040:../../LUFA/Drivers/USB/LowLevel/Endpoint.h **** 			                                 uint16_t Length
1041:../../LUFA/Drivers/USB/LowLevel/Endpoint.h **** 			                                 __CALLBACK_PARAM) ATTR_NON_NULL_PTR_ARG(1);
1042:../../LUFA/Drivers/USB/LowLevel/Endpoint.h **** 
1043:../../LUFA/Drivers/USB/LowLevel/Endpoint.h **** 			/** Writes the given number of bytes to the CONTROL type endpoint from the given buffer in littl
1044:../../LUFA/Drivers/USB/LowLevel/Endpoint.h **** 			 *  sending full packets to the host as needed. The host OUT acknowledgement is not automaticall
1045:../../LUFA/Drivers/USB/LowLevel/Endpoint.h **** 			 *  in both failure and success states; the user is responsible for manually clearing the setup 
1046:../../LUFA/Drivers/USB/LowLevel/Endpoint.h **** 			 *  finalize the transfer via the \ref Endpoint_ClearOUT() macro.
1047:../../LUFA/Drivers/USB/LowLevel/Endpoint.h **** 			 *
1048:../../LUFA/Drivers/USB/LowLevel/Endpoint.h **** 			 *  \note This function automatically clears the control transfer's status stage. Do not manuall
1049:../../LUFA/Drivers/USB/LowLevel/Endpoint.h **** 			 *        to clear the status stage when using this routine in a control transaction.
1050:../../LUFA/Drivers/USB/LowLevel/Endpoint.h **** 			 *        \n\n
1051:../../LUFA/Drivers/USB/LowLevel/Endpoint.h **** 			 *
1052:../../LUFA/Drivers/USB/LowLevel/Endpoint.h **** 			 *  \note This routine should only be used on CONTROL type endpoints.
1053:../../LUFA/Drivers/USB/LowLevel/Endpoint.h **** 			 *
1054:../../LUFA/Drivers/USB/LowLevel/Endpoint.h **** 			 *  \warning Unlike the standard stream read/write commands, the control stream commands cannot 
1055:../../LUFA/Drivers/USB/LowLevel/Endpoint.h **** 			 *           together; i.e. the entire stream data must be read or written at the one time.
1056:../../LUFA/Drivers/USB/LowLevel/Endpoint.h **** 			 *
1057:../../LUFA/Drivers/USB/LowLevel/Endpoint.h **** 			 *  \ingroup Group_EndpointStreamRW
1058:../../LUFA/Drivers/USB/LowLevel/Endpoint.h **** 			 *
1059:../../LUFA/Drivers/USB/LowLevel/Endpoint.h **** 			 *  \param[in] Buffer  Pointer to the source data buffer to read from.
1060:../../LUFA/Drivers/USB/LowLevel/Endpoint.h **** 			 *  \param[in] Length  Number of bytes to read for the currently selected endpoint into the buff
1061:../../LUFA/Drivers/USB/LowLevel/Endpoint.h **** 			 *
1062:../../LUFA/Drivers/USB/LowLevel/Endpoint.h **** 			 *  \return A value from the \ref Endpoint_ControlStream_RW_ErrorCodes_t enum.
1063:../../LUFA/Drivers/USB/LowLevel/Endpoint.h **** 			 */
1064:../../LUFA/Drivers/USB/LowLevel/Endpoint.h **** 			uint8_t Endpoint_Write_Control_Stream_LE(const void* Buffer,
1065:../../LUFA/Drivers/USB/LowLevel/Endpoint.h **** 			                                         uint16_t Length) ATTR_NON_NULL_PTR_ARG(1);
1066:../../LUFA/Drivers/USB/LowLevel/Endpoint.h **** 
1067:../../LUFA/Drivers/USB/LowLevel/Endpoint.h **** 			/** EEPROM buffer source version of Endpoint_Write_Control_Stream_LE.
1068:../../LUFA/Drivers/USB/LowLevel/Endpoint.h **** 			 *
1069:../../LUFA/Drivers/USB/LowLevel/Endpoint.h **** 			 *  \note This function automatically clears the control transfer's status stage. Do not manuall
1070:../../LUFA/Drivers/USB/LowLevel/Endpoint.h **** 			 *        to clear the status stage when using this routine in a control transaction.
1071:../../LUFA/Drivers/USB/LowLevel/Endpoint.h **** 			 *        \n\n
1072:../../LUFA/Drivers/USB/LowLevel/Endpoint.h **** 			 *
1073:../../LUFA/Drivers/USB/LowLevel/Endpoint.h **** 			 *  \note This routine should only be used on CONTROL type endpoints.
1074:../../LUFA/Drivers/USB/LowLevel/Endpoint.h **** 			 *
1075:../../LUFA/Drivers/USB/LowLevel/Endpoint.h **** 			 *  \warning Unlike the standard stream read/write commands, the control stream commands cannot 
1076:../../LUFA/Drivers/USB/LowLevel/Endpoint.h **** 			 *           together; i.e. the entire stream data must be read or written at the one time.
1077:../../LUFA/Drivers/USB/LowLevel/Endpoint.h **** 			 *
1078:../../LUFA/Drivers/USB/LowLevel/Endpoint.h **** 			 *  \ingroup Group_EndpointStreamRW
1079:../../LUFA/Drivers/USB/LowLevel/Endpoint.h **** 			 *
1080:../../LUFA/Drivers/USB/LowLevel/Endpoint.h **** 			 *  \param[in] Buffer  Pointer to the source data buffer to read from.
1081:../../LUFA/Drivers/USB/LowLevel/Endpoint.h **** 			 *  \param[in] Length  Number of bytes to read for the currently selected endpoint into the buff
1082:../../LUFA/Drivers/USB/LowLevel/Endpoint.h **** 			 *
1083:../../LUFA/Drivers/USB/LowLevel/Endpoint.h **** 			 *  \return A value from the \ref Endpoint_ControlStream_RW_ErrorCodes_t enum.
1084:../../LUFA/Drivers/USB/LowLevel/Endpoint.h **** 			 */
1085:../../LUFA/Drivers/USB/LowLevel/Endpoint.h **** 			uint8_t Endpoint_Write_Control_EStream_LE(const void* Buffer,
1086:../../LUFA/Drivers/USB/LowLevel/Endpoint.h **** 			                                          uint16_t Length) ATTR_NON_NULL_PTR_ARG(1);
1087:../../LUFA/Drivers/USB/LowLevel/Endpoint.h **** 
1088:../../LUFA/Drivers/USB/LowLevel/Endpoint.h **** 			/** FLASH buffer source version of \ref Endpoint_Write_Control_Stream_LE().
1089:../../LUFA/Drivers/USB/LowLevel/Endpoint.h **** 			 *
1090:../../LUFA/Drivers/USB/LowLevel/Endpoint.h **** 			 *  \pre The FLASH data must be located in the first 64KB of FLASH for this function to work cor
1091:../../LUFA/Drivers/USB/LowLevel/Endpoint.h **** 			 *
1092:../../LUFA/Drivers/USB/LowLevel/Endpoint.h **** 			 *  \note This function automatically clears the control transfer's status stage. Do not manuall
1093:../../LUFA/Drivers/USB/LowLevel/Endpoint.h **** 			 *        to clear the status stage when using this routine in a control transaction.
1094:../../LUFA/Drivers/USB/LowLevel/Endpoint.h **** 			 *        \n\n
1095:../../LUFA/Drivers/USB/LowLevel/Endpoint.h **** 			 *
1096:../../LUFA/Drivers/USB/LowLevel/Endpoint.h **** 			 *  \note This routine should only be used on CONTROL type endpoints.
1097:../../LUFA/Drivers/USB/LowLevel/Endpoint.h **** 			 *
1098:../../LUFA/Drivers/USB/LowLevel/Endpoint.h **** 			 *  \warning Unlike the standard stream read/write commands, the control stream commands cannot 
1099:../../LUFA/Drivers/USB/LowLevel/Endpoint.h **** 			 *           together; i.e. the entire stream data must be read or written at the one time.
1100:../../LUFA/Drivers/USB/LowLevel/Endpoint.h **** 			 *
1101:../../LUFA/Drivers/USB/LowLevel/Endpoint.h **** 			 *  \ingroup Group_EndpointStreamRW
1102:../../LUFA/Drivers/USB/LowLevel/Endpoint.h **** 			 *
1103:../../LUFA/Drivers/USB/LowLevel/Endpoint.h **** 			 *  \param[in] Buffer  Pointer to the source data buffer to read from.
1104:../../LUFA/Drivers/USB/LowLevel/Endpoint.h **** 			 *  \param[in] Length  Number of bytes to read for the currently selected endpoint into the buff
1105:../../LUFA/Drivers/USB/LowLevel/Endpoint.h **** 			 *
1106:../../LUFA/Drivers/USB/LowLevel/Endpoint.h **** 			 *  \return A value from the \ref Endpoint_ControlStream_RW_ErrorCodes_t enum.
1107:../../LUFA/Drivers/USB/LowLevel/Endpoint.h **** 			 */
1108:../../LUFA/Drivers/USB/LowLevel/Endpoint.h **** 			uint8_t Endpoint_Write_Control_PStream_LE(const void* Buffer,
1109:../../LUFA/Drivers/USB/LowLevel/Endpoint.h **** 			                                          uint16_t Length) ATTR_NON_NULL_PTR_ARG(1);
1110:../../LUFA/Drivers/USB/LowLevel/Endpoint.h **** 
1111:../../LUFA/Drivers/USB/LowLevel/Endpoint.h **** 			/** Writes the given number of bytes to the CONTROL type endpoint from the given buffer in big e
1112:../../LUFA/Drivers/USB/LowLevel/Endpoint.h **** 			 *  sending full packets to the host as needed. The host OUT acknowledgement is not automaticall
1113:../../LUFA/Drivers/USB/LowLevel/Endpoint.h **** 			 *  in both failure and success states; the user is responsible for manually clearing the setup 
1114:../../LUFA/Drivers/USB/LowLevel/Endpoint.h **** 			 *  finalize the transfer via the \ref Endpoint_ClearOUT() macro.
1115:../../LUFA/Drivers/USB/LowLevel/Endpoint.h **** 			 *
1116:../../LUFA/Drivers/USB/LowLevel/Endpoint.h **** 			 *  \note This function automatically clears the control transfer's status stage. Do not manuall
1117:../../LUFA/Drivers/USB/LowLevel/Endpoint.h **** 			 *        to clear the status stage when using this routine in a control transaction.
1118:../../LUFA/Drivers/USB/LowLevel/Endpoint.h **** 			 *        \n\n
1119:../../LUFA/Drivers/USB/LowLevel/Endpoint.h **** 			 *
1120:../../LUFA/Drivers/USB/LowLevel/Endpoint.h **** 			 *  \note This routine should only be used on CONTROL type endpoints.
1121:../../LUFA/Drivers/USB/LowLevel/Endpoint.h **** 			 *
1122:../../LUFA/Drivers/USB/LowLevel/Endpoint.h **** 			 *  \warning Unlike the standard stream read/write commands, the control stream commands cannot 
1123:../../LUFA/Drivers/USB/LowLevel/Endpoint.h **** 			 *           together; i.e. the entire stream data must be read or written at the one time.
1124:../../LUFA/Drivers/USB/LowLevel/Endpoint.h **** 			 *
1125:../../LUFA/Drivers/USB/LowLevel/Endpoint.h **** 			 *  \ingroup Group_EndpointStreamRW
1126:../../LUFA/Drivers/USB/LowLevel/Endpoint.h **** 			 *
1127:../../LUFA/Drivers/USB/LowLevel/Endpoint.h **** 			 *  \param[in] Buffer  Pointer to the source data buffer to read from.
1128:../../LUFA/Drivers/USB/LowLevel/Endpoint.h **** 			 *  \param[in] Length  Number of bytes to read for the currently selected endpoint into the buff
1129:../../LUFA/Drivers/USB/LowLevel/Endpoint.h **** 			 *
1130:../../LUFA/Drivers/USB/LowLevel/Endpoint.h **** 			 *  \return A value from the \ref Endpoint_ControlStream_RW_ErrorCodes_t enum.
1131:../../LUFA/Drivers/USB/LowLevel/Endpoint.h **** 			 */
1132:../../LUFA/Drivers/USB/LowLevel/Endpoint.h **** 			uint8_t Endpoint_Write_Control_Stream_BE(const void* Buffer,
1133:../../LUFA/Drivers/USB/LowLevel/Endpoint.h **** 			                                         uint16_t Length) ATTR_NON_NULL_PTR_ARG(1);
1134:../../LUFA/Drivers/USB/LowLevel/Endpoint.h **** 
1135:../../LUFA/Drivers/USB/LowLevel/Endpoint.h **** 			/** EEPROM buffer source version of \ref Endpoint_Write_Control_Stream_BE().
1136:../../LUFA/Drivers/USB/LowLevel/Endpoint.h **** 			 *
1137:../../LUFA/Drivers/USB/LowLevel/Endpoint.h **** 			 *  \note This function automatically clears the control transfer's status stage. Do not manuall
1138:../../LUFA/Drivers/USB/LowLevel/Endpoint.h **** 			 *        to clear the status stage when using this routine in a control transaction.
1139:../../LUFA/Drivers/USB/LowLevel/Endpoint.h **** 			 *        \n\n
1140:../../LUFA/Drivers/USB/LowLevel/Endpoint.h **** 			 *
1141:../../LUFA/Drivers/USB/LowLevel/Endpoint.h **** 			 *  \note This routine should only be used on CONTROL type endpoints.
1142:../../LUFA/Drivers/USB/LowLevel/Endpoint.h **** 			 *
1143:../../LUFA/Drivers/USB/LowLevel/Endpoint.h **** 			 *  \warning Unlike the standard stream read/write commands, the control stream commands cannot 
1144:../../LUFA/Drivers/USB/LowLevel/Endpoint.h **** 			 *           together; i.e. the entire stream data must be read or written at the one time.
1145:../../LUFA/Drivers/USB/LowLevel/Endpoint.h **** 			 *
1146:../../LUFA/Drivers/USB/LowLevel/Endpoint.h **** 			 *  \ingroup Group_EndpointStreamRW
1147:../../LUFA/Drivers/USB/LowLevel/Endpoint.h **** 			 *
1148:../../LUFA/Drivers/USB/LowLevel/Endpoint.h **** 			 *  \param[in] Buffer  Pointer to the source data buffer to read from.
1149:../../LUFA/Drivers/USB/LowLevel/Endpoint.h **** 			 *  \param[in] Length  Number of bytes to read for the currently selected endpoint into the buff
1150:../../LUFA/Drivers/USB/LowLevel/Endpoint.h **** 			 *
1151:../../LUFA/Drivers/USB/LowLevel/Endpoint.h **** 			 *  \return A value from the \ref Endpoint_ControlStream_RW_ErrorCodes_t enum.
1152:../../LUFA/Drivers/USB/LowLevel/Endpoint.h **** 			 */
1153:../../LUFA/Drivers/USB/LowLevel/Endpoint.h **** 			uint8_t Endpoint_Write_Control_EStream_BE(const void* Buffer,
1154:../../LUFA/Drivers/USB/LowLevel/Endpoint.h **** 			                                          uint16_t Length) ATTR_NON_NULL_PTR_ARG(1);
1155:../../LUFA/Drivers/USB/LowLevel/Endpoint.h **** 
1156:../../LUFA/Drivers/USB/LowLevel/Endpoint.h **** 			/** FLASH buffer source version of \ref Endpoint_Write_Control_Stream_BE().
1157:../../LUFA/Drivers/USB/LowLevel/Endpoint.h **** 			 *
1158:../../LUFA/Drivers/USB/LowLevel/Endpoint.h **** 			 *  \pre The FLASH data must be located in the first 64KB of FLASH for this function to work cor
1159:../../LUFA/Drivers/USB/LowLevel/Endpoint.h **** 			 *
1160:../../LUFA/Drivers/USB/LowLevel/Endpoint.h **** 			 *  \note This function automatically clears the control transfer's status stage. Do not manuall
1161:../../LUFA/Drivers/USB/LowLevel/Endpoint.h **** 			 *        to clear the status stage when using this routine in a control transaction.
1162:../../LUFA/Drivers/USB/LowLevel/Endpoint.h **** 			 *        \n\n
1163:../../LUFA/Drivers/USB/LowLevel/Endpoint.h **** 			 *
1164:../../LUFA/Drivers/USB/LowLevel/Endpoint.h **** 			 *  \note This routine should only be used on CONTROL type endpoints.
1165:../../LUFA/Drivers/USB/LowLevel/Endpoint.h **** 			 *
1166:../../LUFA/Drivers/USB/LowLevel/Endpoint.h **** 			 *  \warning Unlike the standard stream read/write commands, the control stream commands cannot 
1167:../../LUFA/Drivers/USB/LowLevel/Endpoint.h **** 			 *           together; i.e. the entire stream data must be read or written at the one time.
1168:../../LUFA/Drivers/USB/LowLevel/Endpoint.h **** 			 *
1169:../../LUFA/Drivers/USB/LowLevel/Endpoint.h **** 			 *  \ingroup Group_EndpointStreamRW
1170:../../LUFA/Drivers/USB/LowLevel/Endpoint.h **** 			 *
1171:../../LUFA/Drivers/USB/LowLevel/Endpoint.h **** 			 *  \param[in] Buffer  Pointer to the source data buffer to read from.
1172:../../LUFA/Drivers/USB/LowLevel/Endpoint.h **** 			 *  \param[in] Length  Number of bytes to read for the currently selected endpoint into the buff
1173:../../LUFA/Drivers/USB/LowLevel/Endpoint.h **** 			 *
1174:../../LUFA/Drivers/USB/LowLevel/Endpoint.h **** 			 *  \return A value from the \ref Endpoint_ControlStream_RW_ErrorCodes_t enum.
1175:../../LUFA/Drivers/USB/LowLevel/Endpoint.h **** 			 */
1176:../../LUFA/Drivers/USB/LowLevel/Endpoint.h **** 			uint8_t Endpoint_Write_Control_PStream_BE(const void* Buffer,
1177:../../LUFA/Drivers/USB/LowLevel/Endpoint.h **** 			                                          uint16_t Length) ATTR_NON_NULL_PTR_ARG(1);
1178:../../LUFA/Drivers/USB/LowLevel/Endpoint.h **** 
1179:../../LUFA/Drivers/USB/LowLevel/Endpoint.h **** 			/** Reads the given number of bytes from the CONTROL endpoint from the given buffer in little en
1180:../../LUFA/Drivers/USB/LowLevel/Endpoint.h **** 			 *  discarding fully read packets from the host as needed. The device IN acknowledgement is not
1181:../../LUFA/Drivers/USB/LowLevel/Endpoint.h **** 			 *  automatically sent after success or failure states; the user is responsible for manually sen
1182:../../LUFA/Drivers/USB/LowLevel/Endpoint.h **** 			 *  setup IN to finalize the transfer via the \ref Endpoint_ClearIN() macro.
1183:../../LUFA/Drivers/USB/LowLevel/Endpoint.h **** 			 *
1184:../../LUFA/Drivers/USB/LowLevel/Endpoint.h **** 			 *  \note This function automatically clears the control transfer's status stage. Do not manuall
1185:../../LUFA/Drivers/USB/LowLevel/Endpoint.h **** 			 *        to clear the status stage when using this routine in a control transaction.
1186:../../LUFA/Drivers/USB/LowLevel/Endpoint.h **** 			 *        \n\n
1187:../../LUFA/Drivers/USB/LowLevel/Endpoint.h **** 			 *
1188:../../LUFA/Drivers/USB/LowLevel/Endpoint.h **** 			 *  \note This routine should only be used on CONTROL type endpoints.
1189:../../LUFA/Drivers/USB/LowLevel/Endpoint.h **** 			 *
1190:../../LUFA/Drivers/USB/LowLevel/Endpoint.h **** 			 *  \warning Unlike the standard stream read/write commands, the control stream commands cannot 
1191:../../LUFA/Drivers/USB/LowLevel/Endpoint.h **** 			 *           together; i.e. the entire stream data must be read or written at the one time.
1192:../../LUFA/Drivers/USB/LowLevel/Endpoint.h **** 			 *
1193:../../LUFA/Drivers/USB/LowLevel/Endpoint.h **** 			 *  \ingroup Group_EndpointStreamRW
1194:../../LUFA/Drivers/USB/LowLevel/Endpoint.h **** 			 *
1195:../../LUFA/Drivers/USB/LowLevel/Endpoint.h **** 			 *  \param[out] Buffer  Pointer to the destination data buffer to write to.
1196:../../LUFA/Drivers/USB/LowLevel/Endpoint.h **** 			 *  \param[in]  Length  Number of bytes to send via the currently selected endpoint.
1197:../../LUFA/Drivers/USB/LowLevel/Endpoint.h **** 			 *
1198:../../LUFA/Drivers/USB/LowLevel/Endpoint.h **** 			 *  \return A value from the \ref Endpoint_ControlStream_RW_ErrorCodes_t enum.
1199:../../LUFA/Drivers/USB/LowLevel/Endpoint.h **** 			 */
1200:../../LUFA/Drivers/USB/LowLevel/Endpoint.h **** 			uint8_t Endpoint_Read_Control_Stream_LE(void* Buffer,
1201:../../LUFA/Drivers/USB/LowLevel/Endpoint.h **** 			                                        uint16_t Length) ATTR_NON_NULL_PTR_ARG(1);
1202:../../LUFA/Drivers/USB/LowLevel/Endpoint.h **** 
1203:../../LUFA/Drivers/USB/LowLevel/Endpoint.h **** 			/** EEPROM buffer source version of \ref Endpoint_Read_Control_Stream_LE().
1204:../../LUFA/Drivers/USB/LowLevel/Endpoint.h **** 			 *
1205:../../LUFA/Drivers/USB/LowLevel/Endpoint.h **** 			 *  \note This function automatically clears the control transfer's status stage. Do not manuall
1206:../../LUFA/Drivers/USB/LowLevel/Endpoint.h **** 			 *        to clear the status stage when using this routine in a control transaction.
1207:../../LUFA/Drivers/USB/LowLevel/Endpoint.h **** 			 *        \n\n
1208:../../LUFA/Drivers/USB/LowLevel/Endpoint.h **** 			 *
1209:../../LUFA/Drivers/USB/LowLevel/Endpoint.h **** 			 *  \note This routine should only be used on CONTROL type endpoints.
1210:../../LUFA/Drivers/USB/LowLevel/Endpoint.h **** 			 *
1211:../../LUFA/Drivers/USB/LowLevel/Endpoint.h **** 			 *  \warning Unlike the standard stream read/write commands, the control stream commands cannot 
1212:../../LUFA/Drivers/USB/LowLevel/Endpoint.h **** 			 *           together; i.e. the entire stream data must be read or written at the one time.
1213:../../LUFA/Drivers/USB/LowLevel/Endpoint.h **** 			 *
1214:../../LUFA/Drivers/USB/LowLevel/Endpoint.h **** 			 *  \ingroup Group_EndpointStreamRW
1215:../../LUFA/Drivers/USB/LowLevel/Endpoint.h **** 			 *
1216:../../LUFA/Drivers/USB/LowLevel/Endpoint.h **** 			 *  \param[out] Buffer  Pointer to the destination data buffer to write to.
1217:../../LUFA/Drivers/USB/LowLevel/Endpoint.h **** 			 *  \param[in]  Length  Number of bytes to send via the currently selected endpoint.
1218:../../LUFA/Drivers/USB/LowLevel/Endpoint.h **** 			 *
1219:../../LUFA/Drivers/USB/LowLevel/Endpoint.h **** 			 *  \return A value from the \ref Endpoint_ControlStream_RW_ErrorCodes_t enum.
1220:../../LUFA/Drivers/USB/LowLevel/Endpoint.h **** 			 */
1221:../../LUFA/Drivers/USB/LowLevel/Endpoint.h **** 			uint8_t Endpoint_Read_Control_EStream_LE(void* Buffer,
1222:../../LUFA/Drivers/USB/LowLevel/Endpoint.h **** 			                                         uint16_t Length) ATTR_NON_NULL_PTR_ARG(1);
1223:../../LUFA/Drivers/USB/LowLevel/Endpoint.h **** 
1224:../../LUFA/Drivers/USB/LowLevel/Endpoint.h **** 			/** Reads the given number of bytes from the CONTROL endpoint from the given buffer in big endia
1225:../../LUFA/Drivers/USB/LowLevel/Endpoint.h **** 			 *  discarding fully read packets from the host as needed. The device IN acknowledgement is not
1226:../../LUFA/Drivers/USB/LowLevel/Endpoint.h **** 			 *  automatically sent after success or failure states; the user is responsible for manually sen
1227:../../LUFA/Drivers/USB/LowLevel/Endpoint.h **** 			 *  setup IN to finalize the transfer via the \ref Endpoint_ClearIN() macro.
1228:../../LUFA/Drivers/USB/LowLevel/Endpoint.h **** 			 *
1229:../../LUFA/Drivers/USB/LowLevel/Endpoint.h **** 			 *  \note This function automatically clears the control transfer's status stage. Do not manuall
1230:../../LUFA/Drivers/USB/LowLevel/Endpoint.h **** 			 *        to clear the status stage when using this routine in a control transaction.
1231:../../LUFA/Drivers/USB/LowLevel/Endpoint.h **** 			 *        \n\n
1232:../../LUFA/Drivers/USB/LowLevel/Endpoint.h **** 			 *
1233:../../LUFA/Drivers/USB/LowLevel/Endpoint.h **** 			 *  \note This routine should only be used on CONTROL type endpoints.
1234:../../LUFA/Drivers/USB/LowLevel/Endpoint.h **** 			 *
1235:../../LUFA/Drivers/USB/LowLevel/Endpoint.h **** 			 *  \warning Unlike the standard stream read/write commands, the control stream commands cannot 
1236:../../LUFA/Drivers/USB/LowLevel/Endpoint.h **** 			 *           together; i.e. the entire stream data must be read or written at the one time.
1237:../../LUFA/Drivers/USB/LowLevel/Endpoint.h **** 			 *
1238:../../LUFA/Drivers/USB/LowLevel/Endpoint.h **** 			 *  \ingroup Group_EndpointStreamRW
1239:../../LUFA/Drivers/USB/LowLevel/Endpoint.h **** 			 *
1240:../../LUFA/Drivers/USB/LowLevel/Endpoint.h **** 			 *  \param[out] Buffer  Pointer to the destination data buffer to write to.
1241:../../LUFA/Drivers/USB/LowLevel/Endpoint.h **** 			 *  \param[in]  Length  Number of bytes to send via the currently selected endpoint.
1242:../../LUFA/Drivers/USB/LowLevel/Endpoint.h **** 			 *
1243:../../LUFA/Drivers/USB/LowLevel/Endpoint.h **** 			 *  \return A value from the \ref Endpoint_ControlStream_RW_ErrorCodes_t enum.
1244:../../LUFA/Drivers/USB/LowLevel/Endpoint.h **** 			 */
1245:../../LUFA/Drivers/USB/LowLevel/Endpoint.h **** 			uint8_t Endpoint_Read_Control_Stream_BE(void* Buffer,
1246:../../LUFA/Drivers/USB/LowLevel/Endpoint.h **** 			                                        uint16_t Length) ATTR_NON_NULL_PTR_ARG(1);
1247:../../LUFA/Drivers/USB/LowLevel/Endpoint.h **** 			
1248:../../LUFA/Drivers/USB/LowLevel/Endpoint.h **** 			/** EEPROM buffer source version of \ref Endpoint_Read_Control_Stream_BE().
1249:../../LUFA/Drivers/USB/LowLevel/Endpoint.h **** 			 *
1250:../../LUFA/Drivers/USB/LowLevel/Endpoint.h **** 			 *  \note This function automatically clears the control transfer's status stage. Do not manuall
1251:../../LUFA/Drivers/USB/LowLevel/Endpoint.h **** 			 *        to clear the status stage when using this routine in a control transaction.
1252:../../LUFA/Drivers/USB/LowLevel/Endpoint.h **** 			 *        \n\n
1253:../../LUFA/Drivers/USB/LowLevel/Endpoint.h **** 			 *
1254:../../LUFA/Drivers/USB/LowLevel/Endpoint.h **** 			 *  \note This routine should only be used on CONTROL type endpoints.
1255:../../LUFA/Drivers/USB/LowLevel/Endpoint.h **** 			 *
1256:../../LUFA/Drivers/USB/LowLevel/Endpoint.h **** 			 *  \warning Unlike the standard stream read/write commands, the control stream commands cannot 
1257:../../LUFA/Drivers/USB/LowLevel/Endpoint.h **** 			 *           together; i.e. the entire stream data must be read or written at the one time.
1258:../../LUFA/Drivers/USB/LowLevel/Endpoint.h **** 			 *
1259:../../LUFA/Drivers/USB/LowLevel/Endpoint.h **** 			 *  \ingroup Group_EndpointStreamRW
1260:../../LUFA/Drivers/USB/LowLevel/Endpoint.h **** 			 *
1261:../../LUFA/Drivers/USB/LowLevel/Endpoint.h **** 			 *  \param[out] Buffer  Pointer to the destination data buffer to write to.
1262:../../LUFA/Drivers/USB/LowLevel/Endpoint.h **** 			 *  \param[in]  Length  Number of bytes to send via the currently selected endpoint.
1263:../../LUFA/Drivers/USB/LowLevel/Endpoint.h **** 			 *
1264:../../LUFA/Drivers/USB/LowLevel/Endpoint.h **** 			 *  \return A value from the \ref Endpoint_ControlStream_RW_ErrorCodes_t enum.
1265:../../LUFA/Drivers/USB/LowLevel/Endpoint.h **** 			 */
1266:../../LUFA/Drivers/USB/LowLevel/Endpoint.h **** 			uint8_t Endpoint_Read_Control_EStream_BE(void* Buffer,
1267:../../LUFA/Drivers/USB/LowLevel/Endpoint.h **** 			                                         uint16_t Length) ATTR_NON_NULL_PTR_ARG(1);
1268:../../LUFA/Drivers/USB/LowLevel/Endpoint.h **** 
1269:../../LUFA/Drivers/USB/LowLevel/Endpoint.h **** 	/* Private Interface - For use in library only: */
1270:../../LUFA/Drivers/USB/LowLevel/Endpoint.h **** 	#if !defined(__DOXYGEN__)
1271:../../LUFA/Drivers/USB/LowLevel/Endpoint.h **** 		/* Macros: */
1272:../../LUFA/Drivers/USB/LowLevel/Endpoint.h **** 			#define _ENDPOINT_GET_MAXSIZE(n)               _ENDPOINT_GET_MAXSIZE2(ENDPOINT_DETAILS_EP ## n)
1273:../../LUFA/Drivers/USB/LowLevel/Endpoint.h **** 			#define _ENDPOINT_GET_MAXSIZE2(details)        _ENDPOINT_GET_MAXSIZE3(details)
1274:../../LUFA/Drivers/USB/LowLevel/Endpoint.h **** 			#define _ENDPOINT_GET_MAXSIZE3(maxsize, db)    maxsize
1275:../../LUFA/Drivers/USB/LowLevel/Endpoint.h **** 
1276:../../LUFA/Drivers/USB/LowLevel/Endpoint.h **** 			#define _ENDPOINT_GET_DOUBLEBANK(n)            _ENDPOINT_GET_DOUBLEBANK2(ENDPOINT_DETAILS_EP ## 
1277:../../LUFA/Drivers/USB/LowLevel/Endpoint.h **** 			#define _ENDPOINT_GET_DOUBLEBANK2(details)     _ENDPOINT_GET_DOUBLEBANK3(details)
1278:../../LUFA/Drivers/USB/LowLevel/Endpoint.h **** 			#define _ENDPOINT_GET_DOUBLEBANK3(maxsize, db) db
1279:../../LUFA/Drivers/USB/LowLevel/Endpoint.h **** 			
1280:../../LUFA/Drivers/USB/LowLevel/Endpoint.h **** 			#if defined(USB_SERIES_4_AVR) || defined(USB_SERIES_6_AVR) || defined(USB_SERIES_7_AVR)
1281:../../LUFA/Drivers/USB/LowLevel/Endpoint.h **** 				#define ENDPOINT_DETAILS_EP0               64,  true
1282:../../LUFA/Drivers/USB/LowLevel/Endpoint.h **** 				#define ENDPOINT_DETAILS_EP1               256, true
1283:../../LUFA/Drivers/USB/LowLevel/Endpoint.h **** 				#define ENDPOINT_DETAILS_EP2               64,  true
1284:../../LUFA/Drivers/USB/LowLevel/Endpoint.h **** 				#define ENDPOINT_DETAILS_EP3               64,  true
1285:../../LUFA/Drivers/USB/LowLevel/Endpoint.h **** 				#define ENDPOINT_DETAILS_EP4               64,  true
1286:../../LUFA/Drivers/USB/LowLevel/Endpoint.h **** 				#define ENDPOINT_DETAILS_EP5               64,  true
1287:../../LUFA/Drivers/USB/LowLevel/Endpoint.h **** 				#define ENDPOINT_DETAILS_EP6               64,  true
1288:../../LUFA/Drivers/USB/LowLevel/Endpoint.h **** 			#else
1289:../../LUFA/Drivers/USB/LowLevel/Endpoint.h **** 				#define ENDPOINT_DETAILS_EP0               64,  true
1290:../../LUFA/Drivers/USB/LowLevel/Endpoint.h **** 				#define ENDPOINT_DETAILS_EP1               64,  false
1291:../../LUFA/Drivers/USB/LowLevel/Endpoint.h **** 				#define ENDPOINT_DETAILS_EP2               64,  false
1292:../../LUFA/Drivers/USB/LowLevel/Endpoint.h **** 				#define ENDPOINT_DETAILS_EP3               64,  true
1293:../../LUFA/Drivers/USB/LowLevel/Endpoint.h **** 				#define ENDPOINT_DETAILS_EP4               64,  true			
1294:../../LUFA/Drivers/USB/LowLevel/Endpoint.h **** 			#endif
1295:../../LUFA/Drivers/USB/LowLevel/Endpoint.h **** 
1296:../../LUFA/Drivers/USB/LowLevel/Endpoint.h **** 			#define Endpoint_ConfigureEndpoint(Number, Type, Direction, Size, Banks)                        
1297:../../LUFA/Drivers/USB/LowLevel/Endpoint.h **** 			                     (__builtin_constant_p(Size) ? Endpoint_ConfigureEndpointStatic((Number),   
1298:../../LUFA/Drivers/USB/LowLevel/Endpoint.h **** 			                                                                                    (Type),     
1299:../../LUFA/Drivers/USB/LowLevel/Endpoint.h **** 			                                                                                    (Direction),
1300:../../LUFA/Drivers/USB/LowLevel/Endpoint.h **** 			                                                                                    Size, Banks)
1301:../../LUFA/Drivers/USB/LowLevel/Endpoint.h **** 			                                                   Endpoint_ConfigureEndpointDynamic((Number),  
1302:../../LUFA/Drivers/USB/LowLevel/Endpoint.h **** 			                                                                                     (Type),    
1303:../../LUFA/Drivers/USB/LowLevel/Endpoint.h **** 			                                                                                     (Direction)
1304:../../LUFA/Drivers/USB/LowLevel/Endpoint.h **** 			                                                                                     Size, Banks
1305:../../LUFA/Drivers/USB/LowLevel/Endpoint.h **** 
1306:../../LUFA/Drivers/USB/LowLevel/Endpoint.h **** 		/* Function Prototypes: */
1307:../../LUFA/Drivers/USB/LowLevel/Endpoint.h **** 			void    Endpoint_ClearEndpoints(void);
1308:../../LUFA/Drivers/USB/LowLevel/Endpoint.h **** 			uint8_t Endpoint_BytesToEPSizeMaskDynamic(const uint16_t Size);
1309:../../LUFA/Drivers/USB/LowLevel/Endpoint.h **** 			bool    Endpoint_ConfigureEndpoint_Prv(const uint8_t Number,
1310:../../LUFA/Drivers/USB/LowLevel/Endpoint.h **** 			                                       const uint8_t UECFG0XData,
1311:../../LUFA/Drivers/USB/LowLevel/Endpoint.h **** 			                                       const uint8_t UECFG1XData);			
1312:../../LUFA/Drivers/USB/LowLevel/Endpoint.h **** 
1313:../../LUFA/Drivers/USB/LowLevel/Endpoint.h **** 		/* Inline Functions: */
1314:../../LUFA/Drivers/USB/LowLevel/Endpoint.h **** 			static inline uint8_t Endpoint_BytesToEPSizeMask(const uint16_t Bytes) ATTR_WARN_UNUSED_RESULT A
1315:../../LUFA/Drivers/USB/LowLevel/Endpoint.h **** 			static inline uint8_t Endpoint_BytesToEPSizeMask(const uint16_t Bytes)
1316:../../LUFA/Drivers/USB/LowLevel/Endpoint.h **** 			{
1317:../../LUFA/Drivers/USB/LowLevel/Endpoint.h **** 				uint8_t  MaskVal    = 0;
1318:../../LUFA/Drivers/USB/LowLevel/Endpoint.h **** 				uint16_t CheckBytes = 8;
  28               		.loc 2 1318 0
  29 0002 28E0      		ldi r18,lo8(8)
  30 0004 30E0      		ldi r19,0
1317:../../LUFA/Drivers/USB/LowLevel/Endpoint.h **** 				uint16_t CheckBytes = 8;
  31               		.loc 2 1317 0
  32 0006 80E0      		ldi r24,0
  33               	.LVL2:
  34               	.L2:
1319:../../LUFA/Drivers/USB/LowLevel/Endpoint.h **** 				
1320:../../LUFA/Drivers/USB/LowLevel/Endpoint.h **** 				while (CheckBytes < Bytes)
  35               		.loc 2 1320 0
  36 0008 2417      		cp r18,r20
  37 000a 3507      		cpc r19,r21
  38 000c 00F4      		brsh .L5
1321:../../LUFA/Drivers/USB/LowLevel/Endpoint.h **** 				{
1322:../../LUFA/Drivers/USB/LowLevel/Endpoint.h **** 					MaskVal++;
  39               		.loc 2 1322 0
  40 000e 8F5F      		subi r24,lo8(-(1))
  41               	.LVL3:
1323:../../LUFA/Drivers/USB/LowLevel/Endpoint.h **** 					CheckBytes <<= 1;
  42               		.loc 2 1323 0
  43 0010 220F      		lsl r18
  44 0012 331F      		rol r19
  45               	.LVL4:
  46 0014 00C0      		rjmp .L2
  47               	.L5:
  48               	.LBE260:
  49               	.LBE259:
  45:../../LUFA/Drivers/USB/LowLevel/Endpoint.c **** 	return Endpoint_BytesToEPSizeMask(Size);
  46:../../LUFA/Drivers/USB/LowLevel/Endpoint.c **** }
  50               		.loc 1 46 0
  51 0016 8295      		swap r24
  52               	.LVL5:
  53 0018 807F      		andi r24,lo8(-16)
  54 001a 0895      		ret
  55               		.cfi_endproc
  56               	.LFE64:
  58               		.section	.text.Endpoint_ConfigureEndpoint_Prv,"ax",@progbits
  59               	.global	Endpoint_ConfigureEndpoint_Prv
  61               	Endpoint_ConfigureEndpoint_Prv:
  62               	.LFB65:
  47:../../LUFA/Drivers/USB/LowLevel/Endpoint.c **** 
  48:../../LUFA/Drivers/USB/LowLevel/Endpoint.c **** bool Endpoint_ConfigureEndpoint_Prv(const uint8_t Number,
  49:../../LUFA/Drivers/USB/LowLevel/Endpoint.c ****                                     const uint8_t UECFG0XData,
  50:../../LUFA/Drivers/USB/LowLevel/Endpoint.c ****                                     const uint8_t UECFG1XData)
  51:../../LUFA/Drivers/USB/LowLevel/Endpoint.c **** {
  63               		.loc 1 51 0
  64               		.cfi_startproc
  65               	.LVL6:
  66               	/* prologue: function */
  67               	/* frame size = 0 */
  68               	/* stack size = 0 */
  69               	.L__stack_usage = 0
  70               	.LBB261:
  71               	.LBB262:
 299:../../LUFA/Drivers/USB/LowLevel/Endpoint.h **** 				#endif			
  72               		.loc 2 299 0
  73 0000 8093 E900 		sts 233,r24
  74               	.LBE262:
  75               	.LBE261:
  76               	.LBB263:
  77               	.LBB264:
 323:../../LUFA/Drivers/USB/LowLevel/Endpoint.h **** 			}
  78               		.loc 2 323 0
  79 0004 EBEE      		ldi r30,lo8(-21)
  80 0006 F0E0      		ldi r31,0
  81 0008 8081      		ld r24,Z
  82               	.LVL7:
  83 000a 8160      		ori r24,lo8(1)
  84 000c 8083      		st Z,r24
  85               	.LVL8:
  86               	.LBE264:
  87               	.LBE263:
  52:../../LUFA/Drivers/USB/LowLevel/Endpoint.c **** 	Endpoint_SelectEndpoint(Number);
  53:../../LUFA/Drivers/USB/LowLevel/Endpoint.c **** 	Endpoint_EnableEndpoint();
  54:../../LUFA/Drivers/USB/LowLevel/Endpoint.c **** 
  55:../../LUFA/Drivers/USB/LowLevel/Endpoint.c **** 	UECFG1X = 0;
  88               		.loc 1 55 0
  89 000e EDEE      		ldi r30,lo8(-19)
  90 0010 F0E0      		ldi r31,0
  91 0012 1082      		st Z,__zero_reg__
  56:../../LUFA/Drivers/USB/LowLevel/Endpoint.c **** 
  57:../../LUFA/Drivers/USB/LowLevel/Endpoint.c **** 	UECFG0X = UECFG0XData;
  92               		.loc 1 57 0
  93 0014 6093 EC00 		sts 236,r22
  58:../../LUFA/Drivers/USB/LowLevel/Endpoint.c **** 	UECFG1X = UECFG1XData;
  94               		.loc 1 58 0
  95 0018 4083      		st Z,r20
  96               	.LBB265:
  97               	.LBB266:
 368:../../LUFA/Drivers/USB/LowLevel/Endpoint.h **** 			}
  98               		.loc 2 368 0
  99 001a 8091 EE00 		lds r24,238
 100               	.LBE266:
 101               	.LBE265:
  59:../../LUFA/Drivers/USB/LowLevel/Endpoint.c **** 
  60:../../LUFA/Drivers/USB/LowLevel/Endpoint.c **** 	return Endpoint_IsConfigured();
  61:../../LUFA/Drivers/USB/LowLevel/Endpoint.c **** }
 102               		.loc 1 61 0
 103 001e 881F      		rol r24
 104 0020 8827      		clr r24
 105 0022 881F      		rol r24
 106 0024 0895      		ret
 107               		.cfi_endproc
 108               	.LFE65:
 110               		.section	.text.Endpoint_ClearEndpoints,"ax",@progbits
 111               	.global	Endpoint_ClearEndpoints
 113               	Endpoint_ClearEndpoints:
 114               	.LFB66:
  62:../../LUFA/Drivers/USB/LowLevel/Endpoint.c **** 
  63:../../LUFA/Drivers/USB/LowLevel/Endpoint.c **** void Endpoint_ClearEndpoints(void)
  64:../../LUFA/Drivers/USB/LowLevel/Endpoint.c **** {
 115               		.loc 1 64 0
 116               		.cfi_startproc
 117               	/* prologue: function */
 118               	/* frame size = 0 */
 119               	/* stack size = 0 */
 120               	.L__stack_usage = 0
  65:../../LUFA/Drivers/USB/LowLevel/Endpoint.c **** 	UEINT = 0;
 121               		.loc 1 65 0
 122 0000 1092 F400 		sts 244,__zero_reg__
 123               	.LVL9:
 124               	.LBB267:
  66:../../LUFA/Drivers/USB/LowLevel/Endpoint.c **** 
  67:../../LUFA/Drivers/USB/LowLevel/Endpoint.c **** 	for (uint8_t EPNum = 0; EPNum < ENDPOINT_TOTAL_ENDPOINTS; EPNum++)
 125               		.loc 1 67 0
 126 0004 80E0      		ldi r24,0
 127               	.LVL10:
 128               	.L8:
 129               	.LBB268:
 130               	.LBB269:
 299:../../LUFA/Drivers/USB/LowLevel/Endpoint.h **** 				#endif			
 131               		.loc 2 299 0
 132 0006 8093 E900 		sts 233,r24
 133               	.LBE269:
 134               	.LBE268:
  68:../../LUFA/Drivers/USB/LowLevel/Endpoint.c **** 	{
  69:../../LUFA/Drivers/USB/LowLevel/Endpoint.c **** 		Endpoint_SelectEndpoint(EPNum);	
  70:../../LUFA/Drivers/USB/LowLevel/Endpoint.c **** 		UEIENX  = 0;
 135               		.loc 1 70 0
 136 000a 1092 F000 		sts 240,__zero_reg__
  71:../../LUFA/Drivers/USB/LowLevel/Endpoint.c **** 		UEINTX  = 0;
 137               		.loc 1 71 0
 138 000e 1092 E800 		sts 232,__zero_reg__
  72:../../LUFA/Drivers/USB/LowLevel/Endpoint.c **** 		UECFG1X = 0;
 139               		.loc 1 72 0
 140 0012 1092 ED00 		sts 237,__zero_reg__
 141               	.LBB270:
 142               	.LBB271:
 332:../../LUFA/Drivers/USB/LowLevel/Endpoint.h **** 			}
 143               		.loc 2 332 0
 144 0016 9091 EB00 		lds r25,235
 145 001a 9E7F      		andi r25,lo8(-2)
 146 001c 9093 EB00 		sts 235,r25
 147               	.LBE271:
 148               	.LBE270:
  67:../../LUFA/Drivers/USB/LowLevel/Endpoint.c **** 	{
 149               		.loc 1 67 0
 150 0020 8F5F      		subi r24,lo8(-(1))
 151               	.LVL11:
 152 0022 8530      		cpi r24,lo8(5)
 153 0024 01F4      		brne .L8
 154               	/* epilogue start */
 155               	.LBE267:
  73:../../LUFA/Drivers/USB/LowLevel/Endpoint.c **** 		Endpoint_DisableEndpoint();
  74:../../LUFA/Drivers/USB/LowLevel/Endpoint.c **** 	}
  75:../../LUFA/Drivers/USB/LowLevel/Endpoint.c **** }
 156               		.loc 1 75 0
 157 0026 0895      		ret
 158               		.cfi_endproc
 159               	.LFE66:
 161               		.section	.text.Endpoint_ClearStatusStage,"ax",@progbits
 162               	.global	Endpoint_ClearStatusStage
 164               	Endpoint_ClearStatusStage:
 165               	.LFB67:
  76:../../LUFA/Drivers/USB/LowLevel/Endpoint.c **** 
  77:../../LUFA/Drivers/USB/LowLevel/Endpoint.c **** void Endpoint_ClearStatusStage(void)
  78:../../LUFA/Drivers/USB/LowLevel/Endpoint.c **** {
 166               		.loc 1 78 0
 167               		.cfi_startproc
 168               	/* prologue: function */
 169               	/* frame size = 0 */
 170               	/* stack size = 0 */
 171               	.L__stack_usage = 0
  79:../../LUFA/Drivers/USB/LowLevel/Endpoint.c **** 	if (USB_ControlRequest.bmRequestType & REQDIR_DEVICETOHOST)
 172               		.loc 1 79 0
 173 0000 8091 0000 		lds r24,USB_ControlRequest
 174 0004 87FF      		sbrs r24,7
 175 0006 00C0      		rjmp .L12
 176               	.L20:
 177               	.LBB272:
 178               	.LBB273:
 417:../../LUFA/Drivers/USB/LowLevel/Endpoint.h **** 			}
 179               		.loc 2 417 0
 180 0008 8091 E800 		lds r24,232
 181               	.LBE273:
 182               	.LBE272:
  80:../../LUFA/Drivers/USB/LowLevel/Endpoint.c **** 	{
  81:../../LUFA/Drivers/USB/LowLevel/Endpoint.c **** 		while (!(Endpoint_IsOUTReceived()))
 183               		.loc 1 81 0
 184 000c 82FD      		sbrc r24,2
 185 000e 00C0      		rjmp .L24
  82:../../LUFA/Drivers/USB/LowLevel/Endpoint.c **** 		{
  83:../../LUFA/Drivers/USB/LowLevel/Endpoint.c **** 			if (USB_DeviceState == DEVICE_STATE_Unattached)
 186               		.loc 1 83 0
 187 0010 8EB3      		in r24,0x1e
 188 0012 8111      		cpse r24,__zero_reg__
 189 0014 00C0      		rjmp .L20
 190 0016 00C0      		rjmp .L10
 191               	.L24:
 192               	.LBB274:
 193               	.LBB275:
 469:../../LUFA/Drivers/USB/LowLevel/Endpoint.h **** 				#else
 194               		.loc 2 469 0
 195 0018 8091 E800 		lds r24,232
 196 001c 8B77      		andi r24,lo8(123)
 197 001e 00C0      		rjmp .L23
 198               	.L15:
 199               	.LBE275:
 200               	.LBE274:
  84:../../LUFA/Drivers/USB/LowLevel/Endpoint.c **** 			  return;
  85:../../LUFA/Drivers/USB/LowLevel/Endpoint.c **** 		}
  86:../../LUFA/Drivers/USB/LowLevel/Endpoint.c **** 
  87:../../LUFA/Drivers/USB/LowLevel/Endpoint.c **** 		Endpoint_ClearOUT();
  88:../../LUFA/Drivers/USB/LowLevel/Endpoint.c **** 	}
  89:../../LUFA/Drivers/USB/LowLevel/Endpoint.c **** 	else
  90:../../LUFA/Drivers/USB/LowLevel/Endpoint.c **** 	{
  91:../../LUFA/Drivers/USB/LowLevel/Endpoint.c **** 		while (!(Endpoint_IsINReady()))
  92:../../LUFA/Drivers/USB/LowLevel/Endpoint.c **** 		{
  93:../../LUFA/Drivers/USB/LowLevel/Endpoint.c **** 			if (USB_DeviceState == DEVICE_STATE_Unattached)
 201               		.loc 1 93 0
 202 0020 8EB3      		in r24,0x1e
 203 0022 8823      		tst r24
 204 0024 01F0      		breq .L10
 205               	.L12:
 206               	.LBB276:
 207               	.LBB277:
 405:../../LUFA/Drivers/USB/LowLevel/Endpoint.h **** 			}
 208               		.loc 2 405 0
 209 0026 8091 E800 		lds r24,232
 210               	.LBE277:
 211               	.LBE276:
  91:../../LUFA/Drivers/USB/LowLevel/Endpoint.c **** 		{
 212               		.loc 1 91 0
 213 002a 80FF      		sbrs r24,0
 214 002c 00C0      		rjmp .L15
 215               	.LBB278:
 216               	.LBB279:
 454:../../LUFA/Drivers/USB/LowLevel/Endpoint.h **** 				#else
 217               		.loc 2 454 0
 218 002e 8091 E800 		lds r24,232
 219 0032 8E77      		andi r24,lo8(126)
 220               	.L23:
 221 0034 8093 E800 		sts 232,r24
 222               	.L10:
 223 0038 0895      		ret
 224               	.LBE279:
 225               	.LBE278:
 226               		.cfi_endproc
 227               	.LFE67:
 229               		.section	.text.Endpoint_WaitUntilReady,"ax",@progbits
 230               	.global	Endpoint_WaitUntilReady
 232               	Endpoint_WaitUntilReady:
 233               	.LFB68:
  94:../../LUFA/Drivers/USB/LowLevel/Endpoint.c **** 			  return;
  95:../../LUFA/Drivers/USB/LowLevel/Endpoint.c **** 		}
  96:../../LUFA/Drivers/USB/LowLevel/Endpoint.c **** 		
  97:../../LUFA/Drivers/USB/LowLevel/Endpoint.c **** 		Endpoint_ClearIN();
  98:../../LUFA/Drivers/USB/LowLevel/Endpoint.c **** 	}
  99:../../LUFA/Drivers/USB/LowLevel/Endpoint.c **** }
 100:../../LUFA/Drivers/USB/LowLevel/Endpoint.c **** 
 101:../../LUFA/Drivers/USB/LowLevel/Endpoint.c **** #if !defined(CONTROL_ONLY_DEVICE)
 102:../../LUFA/Drivers/USB/LowLevel/Endpoint.c **** uint8_t Endpoint_WaitUntilReady(void)
 103:../../LUFA/Drivers/USB/LowLevel/Endpoint.c **** {
 234               		.loc 1 103 0
 235               		.cfi_startproc
 236               	/* prologue: function */
 237               	/* frame size = 0 */
 238               	/* stack size = 0 */
 239               	.L__stack_usage = 0
 240               	.LVL12:
 241               		.loc 1 103 0
 242 0000 85E6      		ldi r24,lo8(101)
 243               	.LVL13:
 244               	.L29:
 245               	.LBB280:
 246               	.LBB281:
 528:../../LUFA/Drivers/USB/LowLevel/Endpoint.h **** 			}
 247               		.loc 2 528 0
 248 0002 9091 EC00 		lds r25,236
 249               	.LBE281:
 250               	.LBE280:
 104:../../LUFA/Drivers/USB/LowLevel/Endpoint.c **** 	#if (USB_STREAM_TIMEOUT_MS < 0xFF)
 105:../../LUFA/Drivers/USB/LowLevel/Endpoint.c **** 	uint8_t  TimeoutMSRem = USB_STREAM_TIMEOUT_MS;	
 106:../../LUFA/Drivers/USB/LowLevel/Endpoint.c **** 	#else
 107:../../LUFA/Drivers/USB/LowLevel/Endpoint.c **** 	uint16_t TimeoutMSRem = USB_STREAM_TIMEOUT_MS;
 108:../../LUFA/Drivers/USB/LowLevel/Endpoint.c **** 	#endif
 109:../../LUFA/Drivers/USB/LowLevel/Endpoint.c **** 
 110:../../LUFA/Drivers/USB/LowLevel/Endpoint.c **** 	for (;;)
 111:../../LUFA/Drivers/USB/LowLevel/Endpoint.c **** 	{
 112:../../LUFA/Drivers/USB/LowLevel/Endpoint.c **** 		if (Endpoint_GetEndpointDirection() == ENDPOINT_DIR_IN)
 251               		.loc 1 112 0
 252 0006 90FF      		sbrs r25,0
 253 0008 00C0      		rjmp .L26
 254               	.LBB282:
 255               	.LBB283:
 405:../../LUFA/Drivers/USB/LowLevel/Endpoint.h **** 			}
 256               		.loc 2 405 0
 257 000a 9091 E800 		lds r25,232
 258               	.LBE283:
 259               	.LBE282:
 113:../../LUFA/Drivers/USB/LowLevel/Endpoint.c **** 		{
 114:../../LUFA/Drivers/USB/LowLevel/Endpoint.c **** 			if (Endpoint_IsINReady())
 260               		.loc 1 114 0
 261 000e 90FF      		sbrs r25,0
 262 0010 00C0      		rjmp .L28
 263 0012 00C0      		rjmp .L32
 264               	.L26:
 265               	.LBB284:
 266               	.LBB285:
 417:../../LUFA/Drivers/USB/LowLevel/Endpoint.h **** 			}
 267               		.loc 2 417 0
 268 0014 9091 E800 		lds r25,232
 269               	.LBE285:
 270               	.LBE284:
 115:../../LUFA/Drivers/USB/LowLevel/Endpoint.c **** 			  return ENDPOINT_READYWAIT_NoError;
 116:../../LUFA/Drivers/USB/LowLevel/Endpoint.c **** 		}
 117:../../LUFA/Drivers/USB/LowLevel/Endpoint.c **** 		else
 118:../../LUFA/Drivers/USB/LowLevel/Endpoint.c **** 		{
 119:../../LUFA/Drivers/USB/LowLevel/Endpoint.c **** 			if (Endpoint_IsOUTReceived())
 271               		.loc 1 119 0
 272 0018 92FD      		sbrc r25,2
 273 001a 00C0      		rjmp .L32
 274               	.L28:
 120:../../LUFA/Drivers/USB/LowLevel/Endpoint.c **** 			  return ENDPOINT_READYWAIT_NoError;
 121:../../LUFA/Drivers/USB/LowLevel/Endpoint.c **** 		}
 122:../../LUFA/Drivers/USB/LowLevel/Endpoint.c **** 		
 123:../../LUFA/Drivers/USB/LowLevel/Endpoint.c **** 		if (USB_DeviceState == DEVICE_STATE_Unattached)
 275               		.loc 1 123 0
 276 001c 9EB3      		in r25,0x1e
 277 001e 9923      		tst r25
 278 0020 01F0      		breq .L33
 124:../../LUFA/Drivers/USB/LowLevel/Endpoint.c **** 		  return ENDPOINT_READYWAIT_DeviceDisconnected;
 125:../../LUFA/Drivers/USB/LowLevel/Endpoint.c **** 		else if (USB_DeviceState == DEVICE_STATE_Suspended)
 279               		.loc 1 125 0
 280 0022 9EB3      		in r25,0x1e
 281 0024 9530      		cpi r25,lo8(5)
 282 0026 01F0      		breq .L34
 283               	.LBB286:
 284               	.LBB287:
 511:../../LUFA/Drivers/USB/LowLevel/Endpoint.h **** 			}
 285               		.loc 2 511 0
 286 0028 9091 EB00 		lds r25,235
 287               	.LBE287:
 288               	.LBE286:
 126:../../LUFA/Drivers/USB/LowLevel/Endpoint.c **** 		  return ENDPOINT_READYWAIT_BusSuspended;
 127:../../LUFA/Drivers/USB/LowLevel/Endpoint.c **** 		else if (Endpoint_IsStalled())
 289               		.loc 1 127 0
 290 002c 95FD      		sbrc r25,5
 291 002e 00C0      		rjmp .L35
 128:../../LUFA/Drivers/USB/LowLevel/Endpoint.c **** 		  return ENDPOINT_READYWAIT_EndpointStalled;
 129:../../LUFA/Drivers/USB/LowLevel/Endpoint.c **** 			  
 130:../../LUFA/Drivers/USB/LowLevel/Endpoint.c **** 		if (USB_INT_HasOccurred(USB_INT_SOFI))
 292               		.loc 1 130 0
 293 0030 9091 E100 		lds r25,225
 294 0034 92FF      		sbrs r25,2
 295 0036 00C0      		rjmp .L29
 131:../../LUFA/Drivers/USB/LowLevel/Endpoint.c **** 		{
 132:../../LUFA/Drivers/USB/LowLevel/Endpoint.c **** 			USB_INT_Clear(USB_INT_SOFI);
 296               		.loc 1 132 0
 297 0038 9091 E100 		lds r25,225
 298 003c 9B7F      		andi r25,lo8(-5)
 299 003e 9093 E100 		sts 225,r25
 300               	.LVL14:
 301 0042 8150      		subi r24,lo8(-(-1))
 302               	.LVL15:
 133:../../LUFA/Drivers/USB/LowLevel/Endpoint.c **** 
 134:../../LUFA/Drivers/USB/LowLevel/Endpoint.c **** 			if (!(TimeoutMSRem--))
 303               		.loc 1 134 0
 304 0044 01F4      		brne .L29
 135:../../LUFA/Drivers/USB/LowLevel/Endpoint.c **** 			  return ENDPOINT_READYWAIT_Timeout;
 305               		.loc 1 135 0
 306 0046 84E0      		ldi r24,lo8(4)
 307               	.LVL16:
 308 0048 0895      		ret
 309               	.LVL17:
 310               	.L32:
 115:../../LUFA/Drivers/USB/LowLevel/Endpoint.c **** 		}
 311               		.loc 1 115 0
 312 004a 80E0      		ldi r24,0
 313               	.LVL18:
 314 004c 0895      		ret
 315               	.LVL19:
 316               	.L33:
 124:../../LUFA/Drivers/USB/LowLevel/Endpoint.c **** 		else if (USB_DeviceState == DEVICE_STATE_Suspended)
 317               		.loc 1 124 0
 318 004e 82E0      		ldi r24,lo8(2)
 319               	.LVL20:
 320 0050 0895      		ret
 321               	.LVL21:
 322               	.L34:
 126:../../LUFA/Drivers/USB/LowLevel/Endpoint.c **** 		else if (Endpoint_IsStalled())
 323               		.loc 1 126 0
 324 0052 83E0      		ldi r24,lo8(3)
 325               	.LVL22:
 326 0054 0895      		ret
 327               	.LVL23:
 328               	.L35:
 128:../../LUFA/Drivers/USB/LowLevel/Endpoint.c **** 			  
 329               		.loc 1 128 0
 330 0056 81E0      		ldi r24,lo8(1)
 331               	.LVL24:
 136:../../LUFA/Drivers/USB/LowLevel/Endpoint.c **** 		}
 137:../../LUFA/Drivers/USB/LowLevel/Endpoint.c **** 	}
 138:../../LUFA/Drivers/USB/LowLevel/Endpoint.c **** }
 332               		.loc 1 138 0
 333 0058 0895      		ret
 334               		.cfi_endproc
 335               	.LFE68:
 337               		.section	.text.Endpoint_Discard_Stream,"ax",@progbits
 338               	.global	Endpoint_Discard_Stream
 340               	Endpoint_Discard_Stream:
 341               	.LFB69:
 139:../../LUFA/Drivers/USB/LowLevel/Endpoint.c **** 
 140:../../LUFA/Drivers/USB/LowLevel/Endpoint.c **** uint8_t Endpoint_Discard_Stream(uint16_t Length
 141:../../LUFA/Drivers/USB/LowLevel/Endpoint.c **** #if !defined(NO_STREAM_CALLBACKS)
 142:../../LUFA/Drivers/USB/LowLevel/Endpoint.c ****                                 , StreamCallbackPtr_t Callback
 143:../../LUFA/Drivers/USB/LowLevel/Endpoint.c **** #endif
 144:../../LUFA/Drivers/USB/LowLevel/Endpoint.c ****                                 )
 145:../../LUFA/Drivers/USB/LowLevel/Endpoint.c **** {
 342               		.loc 1 145 0
 343               		.cfi_startproc
 344               	.LVL25:
 345 0000 0F93      		push r16
 346               	.LCFI0:
 347               		.cfi_def_cfa_offset 3
 348               		.cfi_offset 16, -2
 349 0002 1F93      		push r17
 350               	.LCFI1:
 351               		.cfi_def_cfa_offset 4
 352               		.cfi_offset 17, -3
 353 0004 CF93      		push r28
 354               	.LCFI2:
 355               		.cfi_def_cfa_offset 5
 356               		.cfi_offset 28, -4
 357 0006 DF93      		push r29
 358               	.LCFI3:
 359               		.cfi_def_cfa_offset 6
 360               		.cfi_offset 29, -5
 361               	/* prologue: function */
 362               	/* frame size = 0 */
 363               	/* stack size = 4 */
 364               	.L__stack_usage = 4
 365 0008 EC01      		movw r28,r24
 366 000a 8B01      		movw r16,r22
 367               	.LVL26:
 368               	.L45:
 146:../../LUFA/Drivers/USB/LowLevel/Endpoint.c **** 	uint8_t  ErrorCode;
 147:../../LUFA/Drivers/USB/LowLevel/Endpoint.c **** 	
 148:../../LUFA/Drivers/USB/LowLevel/Endpoint.c **** 	if ((ErrorCode = Endpoint_WaitUntilReady()))
 149:../../LUFA/Drivers/USB/LowLevel/Endpoint.c **** 	  return ErrorCode;
 150:../../LUFA/Drivers/USB/LowLevel/Endpoint.c **** 
 151:../../LUFA/Drivers/USB/LowLevel/Endpoint.c **** 	#if defined(FAST_STREAM_TRANSFERS)
 152:../../LUFA/Drivers/USB/LowLevel/Endpoint.c **** 	uint8_t BytesRemToAlignment = (Endpoint_BytesInEndpoint() & 0x07);
 153:../../LUFA/Drivers/USB/LowLevel/Endpoint.c **** 
 154:../../LUFA/Drivers/USB/LowLevel/Endpoint.c **** 	if (Length >= 8)
 155:../../LUFA/Drivers/USB/LowLevel/Endpoint.c **** 	{
 156:../../LUFA/Drivers/USB/LowLevel/Endpoint.c **** 		Length -= BytesRemToAlignment;
 157:../../LUFA/Drivers/USB/LowLevel/Endpoint.c **** 
 158:../../LUFA/Drivers/USB/LowLevel/Endpoint.c **** 		switch (BytesRemToAlignment)
 159:../../LUFA/Drivers/USB/LowLevel/Endpoint.c **** 		{
 160:../../LUFA/Drivers/USB/LowLevel/Endpoint.c **** 			default:
 161:../../LUFA/Drivers/USB/LowLevel/Endpoint.c **** 				do
 162:../../LUFA/Drivers/USB/LowLevel/Endpoint.c **** 				{
 163:../../LUFA/Drivers/USB/LowLevel/Endpoint.c **** 					if (!(Endpoint_IsReadWriteAllowed()))
 164:../../LUFA/Drivers/USB/LowLevel/Endpoint.c **** 					{
 165:../../LUFA/Drivers/USB/LowLevel/Endpoint.c **** 						Endpoint_ClearOUT();
 166:../../LUFA/Drivers/USB/LowLevel/Endpoint.c **** 
 167:../../LUFA/Drivers/USB/LowLevel/Endpoint.c **** 						#if !defined(NO_STREAM_CALLBACKS)
 168:../../LUFA/Drivers/USB/LowLevel/Endpoint.c **** 						if ((Callback != NULL) && (Callback() == STREAMCALLBACK_Abort))
 169:../../LUFA/Drivers/USB/LowLevel/Endpoint.c **** 						  return ENDPOINT_RWSTREAM_CallbackAborted;
 170:../../LUFA/Drivers/USB/LowLevel/Endpoint.c **** 						#endif
 171:../../LUFA/Drivers/USB/LowLevel/Endpoint.c **** 
 172:../../LUFA/Drivers/USB/LowLevel/Endpoint.c **** 						if ((ErrorCode = Endpoint_WaitUntilReady()))
 173:../../LUFA/Drivers/USB/LowLevel/Endpoint.c **** 						  return ErrorCode;
 174:../../LUFA/Drivers/USB/LowLevel/Endpoint.c **** 					}
 175:../../LUFA/Drivers/USB/LowLevel/Endpoint.c **** 
 176:../../LUFA/Drivers/USB/LowLevel/Endpoint.c **** 					Length -= 8;
 177:../../LUFA/Drivers/USB/LowLevel/Endpoint.c **** 					
 178:../../LUFA/Drivers/USB/LowLevel/Endpoint.c **** 					Endpoint_Discard_Byte();
 179:../../LUFA/Drivers/USB/LowLevel/Endpoint.c **** 			case 7: Endpoint_Discard_Byte();
 180:../../LUFA/Drivers/USB/LowLevel/Endpoint.c **** 			case 6: Endpoint_Discard_Byte();
 181:../../LUFA/Drivers/USB/LowLevel/Endpoint.c **** 			case 5: Endpoint_Discard_Byte();
 182:../../LUFA/Drivers/USB/LowLevel/Endpoint.c **** 			case 4: Endpoint_Discard_Byte();
 183:../../LUFA/Drivers/USB/LowLevel/Endpoint.c **** 			case 3: Endpoint_Discard_Byte();
 184:../../LUFA/Drivers/USB/LowLevel/Endpoint.c **** 			case 2: Endpoint_Discard_Byte();
 185:../../LUFA/Drivers/USB/LowLevel/Endpoint.c **** 			case 1:	Endpoint_Discard_Byte();
 186:../../LUFA/Drivers/USB/LowLevel/Endpoint.c **** 				} while (Length >= 8);	
 187:../../LUFA/Drivers/USB/LowLevel/Endpoint.c **** 		}
 188:../../LUFA/Drivers/USB/LowLevel/Endpoint.c **** 	}
 189:../../LUFA/Drivers/USB/LowLevel/Endpoint.c **** 	#endif
 190:../../LUFA/Drivers/USB/LowLevel/Endpoint.c **** 
 191:../../LUFA/Drivers/USB/LowLevel/Endpoint.c **** 	while (Length)
 192:../../LUFA/Drivers/USB/LowLevel/Endpoint.c **** 	{
 193:../../LUFA/Drivers/USB/LowLevel/Endpoint.c **** 		if (!(Endpoint_IsReadWriteAllowed()))
 194:../../LUFA/Drivers/USB/LowLevel/Endpoint.c **** 		{
 195:../../LUFA/Drivers/USB/LowLevel/Endpoint.c **** 			Endpoint_ClearOUT();
 196:../../LUFA/Drivers/USB/LowLevel/Endpoint.c **** 
 197:../../LUFA/Drivers/USB/LowLevel/Endpoint.c **** 			#if !defined(NO_STREAM_CALLBACKS)
 198:../../LUFA/Drivers/USB/LowLevel/Endpoint.c **** 			if ((Callback != NULL) && (Callback() == STREAMCALLBACK_Abort))
 199:../../LUFA/Drivers/USB/LowLevel/Endpoint.c **** 			  return ENDPOINT_RWSTREAM_CallbackAborted;
 200:../../LUFA/Drivers/USB/LowLevel/Endpoint.c **** 			#endif
 201:../../LUFA/Drivers/USB/LowLevel/Endpoint.c **** 
 202:../../LUFA/Drivers/USB/LowLevel/Endpoint.c **** 			if ((ErrorCode = Endpoint_WaitUntilReady()))
 369               		.loc 1 202 0
 370 000c 0E94 0000 		call Endpoint_WaitUntilReady
 371               	.LVL27:
 372 0010 8111      		cpse r24,__zero_reg__
 373 0012 00C0      		rjmp .L40
 374               	.LVL28:
 375               	.L41:
 191:../../LUFA/Drivers/USB/LowLevel/Endpoint.c **** 	{
 376               		.loc 1 191 0
 377 0014 2097      		sbiw r28,0
 378 0016 01F0      		breq .L51
 379               	.LBB288:
 380               	.LBB289:
 358:../../LUFA/Drivers/USB/LowLevel/Endpoint.h **** 			}
 381               		.loc 2 358 0
 382 0018 8091 E800 		lds r24,232
 383               	.LBE289:
 384               	.LBE288:
 193:../../LUFA/Drivers/USB/LowLevel/Endpoint.c **** 		{
 385               		.loc 1 193 0
 386 001c 85FD      		sbrc r24,5
 387 001e 00C0      		rjmp .L42
 388               	.LBB290:
 389               	.LBB291:
 469:../../LUFA/Drivers/USB/LowLevel/Endpoint.h **** 				#else
 390               		.loc 2 469 0
 391 0020 8091 E800 		lds r24,232
 392 0024 8B77      		andi r24,lo8(123)
 393 0026 8093 E800 		sts 232,r24
 394               	.LBE291:
 395               	.LBE290:
 198:../../LUFA/Drivers/USB/LowLevel/Endpoint.c **** 			  return ENDPOINT_RWSTREAM_CallbackAborted;
 396               		.loc 1 198 0
 397 002a 0115      		cp r16,__zero_reg__
 398 002c 1105      		cpc r17,__zero_reg__
 399 002e 01F0      		breq .L45
 198:../../LUFA/Drivers/USB/LowLevel/Endpoint.c **** 			  return ENDPOINT_RWSTREAM_CallbackAborted;
 400               		.loc 1 198 0 is_stmt 0 discriminator 1
 401 0030 F801      		movw r30,r16
 402 0032 0995      		icall
 403               	.LVL29:
 404 0034 8130      		cpi r24,lo8(1)
 405 0036 01F4      		brne .L45
 199:../../LUFA/Drivers/USB/LowLevel/Endpoint.c **** 			#endif
 406               		.loc 1 199 0 is_stmt 1
 407 0038 85E0      		ldi r24,lo8(5)
 408 003a 00C0      		rjmp .L40
 409               	.L42:
 410               	.LBB292:
 411               	.LBB293:
 574:../../LUFA/Drivers/USB/LowLevel/Endpoint.h **** 			}
 412               		.loc 2 574 0
 413 003c 8091 F100 		lds r24,241
 414               	.LBE293:
 415               	.LBE292:
 203:../../LUFA/Drivers/USB/LowLevel/Endpoint.c **** 			  return ErrorCode;
 204:../../LUFA/Drivers/USB/LowLevel/Endpoint.c **** 		}
 205:../../LUFA/Drivers/USB/LowLevel/Endpoint.c **** 		else
 206:../../LUFA/Drivers/USB/LowLevel/Endpoint.c **** 		{
 207:../../LUFA/Drivers/USB/LowLevel/Endpoint.c **** 			Endpoint_Discard_Byte();
 208:../../LUFA/Drivers/USB/LowLevel/Endpoint.c **** 			Length--;
 416               		.loc 1 208 0
 417 0040 2197      		sbiw r28,1
 418               	.LVL30:
 419 0042 00C0      		rjmp .L41
 420               	.L51:
 209:../../LUFA/Drivers/USB/LowLevel/Endpoint.c **** 		}
 210:../../LUFA/Drivers/USB/LowLevel/Endpoint.c **** 	}
 211:../../LUFA/Drivers/USB/LowLevel/Endpoint.c **** 	
 212:../../LUFA/Drivers/USB/LowLevel/Endpoint.c **** 	return ENDPOINT_RWSTREAM_NoError;
 421               		.loc 1 212 0
 422 0044 80E0      		ldi r24,0
 423               	.L40:
 424               	/* epilogue start */
 213:../../LUFA/Drivers/USB/LowLevel/Endpoint.c **** }
 425               		.loc 1 213 0
 426 0046 DF91      		pop r29
 427 0048 CF91      		pop r28
 428               	.LVL31:
 429 004a 1F91      		pop r17
 430 004c 0F91      		pop r16
 431               	.LVL32:
 432 004e 0895      		ret
 433               		.cfi_endproc
 434               	.LFE69:
 436               		.section	.text.Endpoint_Write_Stream_LE,"ax",@progbits
 437               	.global	Endpoint_Write_Stream_LE
 439               	Endpoint_Write_Stream_LE:
 440               	.LFB70:
 441               		.file 3 "../../LUFA/Drivers/USB/LowLevel/Template/Template_Endpoint_RW.c"
   1:../../LUFA/Drivers/USB/LowLevel/Template/Template_Endpoint_RW.c **** uint8_t TEMPLATE_FUNC_NAME (TEMPLATE_BUFFER_TYPE Buffer,
   2:../../LUFA/Drivers/USB/LowLevel/Template/Template_Endpoint_RW.c ****                             uint16_t Length
   3:../../LUFA/Drivers/USB/LowLevel/Template/Template_Endpoint_RW.c ****                             __CALLBACK_PARAM)
   4:../../LUFA/Drivers/USB/LowLevel/Template/Template_Endpoint_RW.c **** {
 442               		.loc 3 4 0
 443               		.cfi_startproc
 444               	.LVL33:
 445 0000 EF92      		push r14
 446               	.LCFI4:
 447               		.cfi_def_cfa_offset 3
 448               		.cfi_offset 14, -2
 449 0002 FF92      		push r15
 450               	.LCFI5:
 451               		.cfi_def_cfa_offset 4
 452               		.cfi_offset 15, -3
 453 0004 0F93      		push r16
 454               	.LCFI6:
 455               		.cfi_def_cfa_offset 5
 456               		.cfi_offset 16, -4
 457 0006 1F93      		push r17
 458               	.LCFI7:
 459               		.cfi_def_cfa_offset 6
 460               		.cfi_offset 17, -5
 461 0008 CF93      		push r28
 462               	.LCFI8:
 463               		.cfi_def_cfa_offset 7
 464               		.cfi_offset 28, -6
 465 000a DF93      		push r29
 466               	.LCFI9:
 467               		.cfi_def_cfa_offset 8
 468               		.cfi_offset 29, -7
 469               	/* prologue: function */
 470               	/* frame size = 0 */
 471               	/* stack size = 6 */
 472               	.L__stack_usage = 6
 473 000c 8C01      		movw r16,r24
 474 000e EB01      		movw r28,r22
 475 0010 7A01      		movw r14,r20
 476               	.LVL34:
 477               	.L58:
   5:../../LUFA/Drivers/USB/LowLevel/Template/Template_Endpoint_RW.c **** 	uint8_t* DataStream = ((uint8_t*)Buffer + TEMPLATE_BUFFER_OFFSET(Length));
   6:../../LUFA/Drivers/USB/LowLevel/Template/Template_Endpoint_RW.c **** 	uint8_t  ErrorCode;
   7:../../LUFA/Drivers/USB/LowLevel/Template/Template_Endpoint_RW.c **** 	
   8:../../LUFA/Drivers/USB/LowLevel/Template/Template_Endpoint_RW.c **** 	if ((ErrorCode = Endpoint_WaitUntilReady()))
   9:../../LUFA/Drivers/USB/LowLevel/Template/Template_Endpoint_RW.c **** 	  return ErrorCode;
  10:../../LUFA/Drivers/USB/LowLevel/Template/Template_Endpoint_RW.c **** 
  11:../../LUFA/Drivers/USB/LowLevel/Template/Template_Endpoint_RW.c **** 	#if defined(FAST_STREAM_TRANSFERS)
  12:../../LUFA/Drivers/USB/LowLevel/Template/Template_Endpoint_RW.c **** 	uint8_t BytesRemToAlignment = (Endpoint_BytesInEndpoint() & 0x07);
  13:../../LUFA/Drivers/USB/LowLevel/Template/Template_Endpoint_RW.c **** 
  14:../../LUFA/Drivers/USB/LowLevel/Template/Template_Endpoint_RW.c **** 	if (Length >= 8)
  15:../../LUFA/Drivers/USB/LowLevel/Template/Template_Endpoint_RW.c **** 	{
  16:../../LUFA/Drivers/USB/LowLevel/Template/Template_Endpoint_RW.c **** 		Length -= BytesRemToAlignment;
  17:../../LUFA/Drivers/USB/LowLevel/Template/Template_Endpoint_RW.c **** 
  18:../../LUFA/Drivers/USB/LowLevel/Template/Template_Endpoint_RW.c **** 		switch (BytesRemToAlignment)
  19:../../LUFA/Drivers/USB/LowLevel/Template/Template_Endpoint_RW.c **** 		{
  20:../../LUFA/Drivers/USB/LowLevel/Template/Template_Endpoint_RW.c **** 			default:
  21:../../LUFA/Drivers/USB/LowLevel/Template/Template_Endpoint_RW.c **** 				do
  22:../../LUFA/Drivers/USB/LowLevel/Template/Template_Endpoint_RW.c **** 				{
  23:../../LUFA/Drivers/USB/LowLevel/Template/Template_Endpoint_RW.c **** 					if (!(Endpoint_IsReadWriteAllowed()))
  24:../../LUFA/Drivers/USB/LowLevel/Template/Template_Endpoint_RW.c **** 					{
  25:../../LUFA/Drivers/USB/LowLevel/Template/Template_Endpoint_RW.c **** 						TEMPLATE_CLEAR_ENDPOINT();
  26:../../LUFA/Drivers/USB/LowLevel/Template/Template_Endpoint_RW.c **** 
  27:../../LUFA/Drivers/USB/LowLevel/Template/Template_Endpoint_RW.c **** 						#if !defined(NO_STREAM_CALLBACKS)
  28:../../LUFA/Drivers/USB/LowLevel/Template/Template_Endpoint_RW.c **** 						if ((Callback != NULL) && (Callback() == STREAMCALLBACK_Abort))
  29:../../LUFA/Drivers/USB/LowLevel/Template/Template_Endpoint_RW.c **** 						  return ENDPOINT_RWSTREAM_CallbackAborted;
  30:../../LUFA/Drivers/USB/LowLevel/Template/Template_Endpoint_RW.c **** 						#endif
  31:../../LUFA/Drivers/USB/LowLevel/Template/Template_Endpoint_RW.c **** 
  32:../../LUFA/Drivers/USB/LowLevel/Template/Template_Endpoint_RW.c **** 						if ((ErrorCode = Endpoint_WaitUntilReady()))
  33:../../LUFA/Drivers/USB/LowLevel/Template/Template_Endpoint_RW.c **** 						  return ErrorCode;
  34:../../LUFA/Drivers/USB/LowLevel/Template/Template_Endpoint_RW.c **** 					}
  35:../../LUFA/Drivers/USB/LowLevel/Template/Template_Endpoint_RW.c **** 
  36:../../LUFA/Drivers/USB/LowLevel/Template/Template_Endpoint_RW.c **** 					Length -= 8;
  37:../../LUFA/Drivers/USB/LowLevel/Template/Template_Endpoint_RW.c **** 					
  38:../../LUFA/Drivers/USB/LowLevel/Template/Template_Endpoint_RW.c **** 					TEMPLATE_TRANSFER_BYTE(DataStream);
  39:../../LUFA/Drivers/USB/LowLevel/Template/Template_Endpoint_RW.c **** 			case 7: TEMPLATE_TRANSFER_BYTE(DataStream);
  40:../../LUFA/Drivers/USB/LowLevel/Template/Template_Endpoint_RW.c **** 			case 6: TEMPLATE_TRANSFER_BYTE(DataStream);
  41:../../LUFA/Drivers/USB/LowLevel/Template/Template_Endpoint_RW.c **** 			case 5: TEMPLATE_TRANSFER_BYTE(DataStream);
  42:../../LUFA/Drivers/USB/LowLevel/Template/Template_Endpoint_RW.c **** 			case 4: TEMPLATE_TRANSFER_BYTE(DataStream);
  43:../../LUFA/Drivers/USB/LowLevel/Template/Template_Endpoint_RW.c **** 			case 3: TEMPLATE_TRANSFER_BYTE(DataStream);
  44:../../LUFA/Drivers/USB/LowLevel/Template/Template_Endpoint_RW.c **** 			case 2: TEMPLATE_TRANSFER_BYTE(DataStream);
  45:../../LUFA/Drivers/USB/LowLevel/Template/Template_Endpoint_RW.c **** 			case 1:	TEMPLATE_TRANSFER_BYTE(DataStream);
  46:../../LUFA/Drivers/USB/LowLevel/Template/Template_Endpoint_RW.c **** 				} while (Length >= 8);	
  47:../../LUFA/Drivers/USB/LowLevel/Template/Template_Endpoint_RW.c **** 		}
  48:../../LUFA/Drivers/USB/LowLevel/Template/Template_Endpoint_RW.c **** 	}
  49:../../LUFA/Drivers/USB/LowLevel/Template/Template_Endpoint_RW.c **** 	#endif
  50:../../LUFA/Drivers/USB/LowLevel/Template/Template_Endpoint_RW.c **** 
  51:../../LUFA/Drivers/USB/LowLevel/Template/Template_Endpoint_RW.c **** 	while (Length)
  52:../../LUFA/Drivers/USB/LowLevel/Template/Template_Endpoint_RW.c **** 	{
  53:../../LUFA/Drivers/USB/LowLevel/Template/Template_Endpoint_RW.c **** 		if (!(Endpoint_IsReadWriteAllowed()))
  54:../../LUFA/Drivers/USB/LowLevel/Template/Template_Endpoint_RW.c **** 		{
  55:../../LUFA/Drivers/USB/LowLevel/Template/Template_Endpoint_RW.c **** 			TEMPLATE_CLEAR_ENDPOINT();
  56:../../LUFA/Drivers/USB/LowLevel/Template/Template_Endpoint_RW.c **** 
  57:../../LUFA/Drivers/USB/LowLevel/Template/Template_Endpoint_RW.c **** 			#if !defined(NO_STREAM_CALLBACKS)
  58:../../LUFA/Drivers/USB/LowLevel/Template/Template_Endpoint_RW.c **** 			if ((Callback != NULL) && (Callback() == STREAMCALLBACK_Abort))
  59:../../LUFA/Drivers/USB/LowLevel/Template/Template_Endpoint_RW.c **** 			  return ENDPOINT_RWSTREAM_CallbackAborted;
  60:../../LUFA/Drivers/USB/LowLevel/Template/Template_Endpoint_RW.c **** 			#endif
  61:../../LUFA/Drivers/USB/LowLevel/Template/Template_Endpoint_RW.c **** 
  62:../../LUFA/Drivers/USB/LowLevel/Template/Template_Endpoint_RW.c **** 			if ((ErrorCode = Endpoint_WaitUntilReady()))
 478               		.loc 3 62 0
 479 0012 0E94 0000 		call Endpoint_WaitUntilReady
 480               	.LVL35:
 481 0016 8111      		cpse r24,__zero_reg__
 482 0018 00C0      		rjmp .L53
 483               	.LVL36:
 484               	.L54:
  51:../../LUFA/Drivers/USB/LowLevel/Template/Template_Endpoint_RW.c **** 	{
 485               		.loc 3 51 0
 486 001a 2097      		sbiw r28,0
 487 001c 01F0      		breq .L64
 488               	.LBB294:
 489               	.LBB295:
 358:../../LUFA/Drivers/USB/LowLevel/Endpoint.h **** 			}
 490               		.loc 2 358 0
 491 001e 8091 E800 		lds r24,232
 492               	.LBE295:
 493               	.LBE294:
  53:../../LUFA/Drivers/USB/LowLevel/Template/Template_Endpoint_RW.c **** 		{
 494               		.loc 3 53 0
 495 0022 85FD      		sbrc r24,5
 496 0024 00C0      		rjmp .L55
 497               	.LBB296:
 498               	.LBB297:
 454:../../LUFA/Drivers/USB/LowLevel/Endpoint.h **** 				#else
 499               		.loc 2 454 0
 500 0026 8091 E800 		lds r24,232
 501 002a 8E77      		andi r24,lo8(126)
 502 002c 8093 E800 		sts 232,r24
 503               	.LBE297:
 504               	.LBE296:
  58:../../LUFA/Drivers/USB/LowLevel/Template/Template_Endpoint_RW.c **** 			  return ENDPOINT_RWSTREAM_CallbackAborted;
 505               		.loc 3 58 0
 506 0030 E114      		cp r14,__zero_reg__
 507 0032 F104      		cpc r15,__zero_reg__
 508 0034 01F0      		breq .L58
  58:../../LUFA/Drivers/USB/LowLevel/Template/Template_Endpoint_RW.c **** 			  return ENDPOINT_RWSTREAM_CallbackAborted;
 509               		.loc 3 58 0 is_stmt 0 discriminator 1
 510 0036 F701      		movw r30,r14
 511 0038 0995      		icall
 512               	.LVL37:
 513 003a 8130      		cpi r24,lo8(1)
 514 003c 01F4      		brne .L58
  59:../../LUFA/Drivers/USB/LowLevel/Template/Template_Endpoint_RW.c **** 			#endif
 515               		.loc 3 59 0 is_stmt 1
 516 003e 85E0      		ldi r24,lo8(5)
 517 0040 00C0      		rjmp .L53
 518               	.L55:
 519               	.LVL38:
  63:../../LUFA/Drivers/USB/LowLevel/Template/Template_Endpoint_RW.c **** 			  return ErrorCode;
  64:../../LUFA/Drivers/USB/LowLevel/Template/Template_Endpoint_RW.c **** 		}
  65:../../LUFA/Drivers/USB/LowLevel/Template/Template_Endpoint_RW.c **** 		else
  66:../../LUFA/Drivers/USB/LowLevel/Template/Template_Endpoint_RW.c **** 		{
  67:../../LUFA/Drivers/USB/LowLevel/Template/Template_Endpoint_RW.c **** 			TEMPLATE_TRANSFER_BYTE(DataStream);
 520               		.loc 3 67 0
 521 0042 F801      		movw r30,r16
 522 0044 8081      		ld r24,Z
 523               	.LVL39:
 524               	.LBB298:
 525               	.LBB299:
 562:../../LUFA/Drivers/USB/LowLevel/Endpoint.h **** 			}
 526               		.loc 2 562 0
 527 0046 8093 F100 		sts 241,r24
 528               	.LBE299:
 529               	.LBE298:
  68:../../LUFA/Drivers/USB/LowLevel/Template/Template_Endpoint_RW.c **** 			Length--;
 530               		.loc 3 68 0
 531 004a 2197      		sbiw r28,1
 532               	.LVL40:
  67:../../LUFA/Drivers/USB/LowLevel/Template/Template_Endpoint_RW.c **** 			Length--;
 533               		.loc 3 67 0
 534 004c 0F5F      		subi r16,-1
 535 004e 1F4F      		sbci r17,-1
 536               	.LVL41:
 537 0050 00C0      		rjmp .L54
 538               	.LVL42:
 539               	.L64:
  69:../../LUFA/Drivers/USB/LowLevel/Template/Template_Endpoint_RW.c **** 		}
  70:../../LUFA/Drivers/USB/LowLevel/Template/Template_Endpoint_RW.c **** 	}
  71:../../LUFA/Drivers/USB/LowLevel/Template/Template_Endpoint_RW.c **** 
  72:../../LUFA/Drivers/USB/LowLevel/Template/Template_Endpoint_RW.c **** 	return ENDPOINT_RWSTREAM_NoError;
 540               		.loc 3 72 0
 541 0052 80E0      		ldi r24,0
 542               	.LVL43:
 543               	.L53:
 544               	/* epilogue start */
  73:../../LUFA/Drivers/USB/LowLevel/Template/Template_Endpoint_RW.c **** }
 545               		.loc 3 73 0
 546 0054 DF91      		pop r29
 547 0056 CF91      		pop r28
 548               	.LVL44:
 549 0058 1F91      		pop r17
 550 005a 0F91      		pop r16
 551 005c FF90      		pop r15
 552 005e EF90      		pop r14
 553               	.LVL45:
 554 0060 0895      		ret
 555               		.cfi_endproc
 556               	.LFE70:
 558               		.section	.text.Endpoint_Write_PStream_LE,"ax",@progbits
 559               	.global	Endpoint_Write_PStream_LE
 561               	Endpoint_Write_PStream_LE:
 562               	.LFB71:
   4:../../LUFA/Drivers/USB/LowLevel/Template/Template_Endpoint_RW.c **** 	uint8_t* DataStream = ((uint8_t*)Buffer + TEMPLATE_BUFFER_OFFSET(Length));
 563               		.loc 3 4 0
 564               		.cfi_startproc
 565               	.LVL46:
 566 0000 EF92      		push r14
 567               	.LCFI10:
 568               		.cfi_def_cfa_offset 3
 569               		.cfi_offset 14, -2
 570 0002 FF92      		push r15
 571               	.LCFI11:
 572               		.cfi_def_cfa_offset 4
 573               		.cfi_offset 15, -3
 574 0004 0F93      		push r16
 575               	.LCFI12:
 576               		.cfi_def_cfa_offset 5
 577               		.cfi_offset 16, -4
 578 0006 1F93      		push r17
 579               	.LCFI13:
 580               		.cfi_def_cfa_offset 6
 581               		.cfi_offset 17, -5
 582 0008 CF93      		push r28
 583               	.LCFI14:
 584               		.cfi_def_cfa_offset 7
 585               		.cfi_offset 28, -6
 586 000a DF93      		push r29
 587               	.LCFI15:
 588               		.cfi_def_cfa_offset 8
 589               		.cfi_offset 29, -7
 590               	/* prologue: function */
 591               	/* frame size = 0 */
 592               	/* stack size = 6 */
 593               	.L__stack_usage = 6
 594 000c EC01      		movw r28,r24
 595 000e 8B01      		movw r16,r22
 596 0010 7A01      		movw r14,r20
 597               	.LVL47:
 598               	.L71:
  62:../../LUFA/Drivers/USB/LowLevel/Template/Template_Endpoint_RW.c **** 			  return ErrorCode;
 599               		.loc 3 62 0
 600 0012 0E94 0000 		call Endpoint_WaitUntilReady
 601               	.LVL48:
 602 0016 8111      		cpse r24,__zero_reg__
 603 0018 00C0      		rjmp .L66
 604               	.LVL49:
 605               	.L67:
  51:../../LUFA/Drivers/USB/LowLevel/Template/Template_Endpoint_RW.c **** 	{
 606               		.loc 3 51 0
 607 001a 0115      		cp r16,__zero_reg__
 608 001c 1105      		cpc r17,__zero_reg__
 609 001e 01F0      		breq .L77
 610               	.LBB300:
 611               	.LBB301:
 358:../../LUFA/Drivers/USB/LowLevel/Endpoint.h **** 			}
 612               		.loc 2 358 0
 613 0020 8091 E800 		lds r24,232
 614               	.LBE301:
 615               	.LBE300:
  53:../../LUFA/Drivers/USB/LowLevel/Template/Template_Endpoint_RW.c **** 		{
 616               		.loc 3 53 0
 617 0024 85FD      		sbrc r24,5
 618 0026 00C0      		rjmp .L68
 619               	.LBB302:
 620               	.LBB303:
 454:../../LUFA/Drivers/USB/LowLevel/Endpoint.h **** 				#else
 621               		.loc 2 454 0
 622 0028 8091 E800 		lds r24,232
 623 002c 8E77      		andi r24,lo8(126)
 624 002e 8093 E800 		sts 232,r24
 625               	.LBE303:
 626               	.LBE302:
  58:../../LUFA/Drivers/USB/LowLevel/Template/Template_Endpoint_RW.c **** 			  return ENDPOINT_RWSTREAM_CallbackAborted;
 627               		.loc 3 58 0
 628 0032 E114      		cp r14,__zero_reg__
 629 0034 F104      		cpc r15,__zero_reg__
 630 0036 01F0      		breq .L71
  58:../../LUFA/Drivers/USB/LowLevel/Template/Template_Endpoint_RW.c **** 			  return ENDPOINT_RWSTREAM_CallbackAborted;
 631               		.loc 3 58 0 is_stmt 0 discriminator 1
 632 0038 F701      		movw r30,r14
 633 003a 0995      		icall
 634               	.LVL50:
 635 003c 8130      		cpi r24,lo8(1)
 636 003e 01F4      		brne .L71
  59:../../LUFA/Drivers/USB/LowLevel/Template/Template_Endpoint_RW.c **** 			#endif
 637               		.loc 3 59 0 is_stmt 1
 638 0040 85E0      		ldi r24,lo8(5)
 639 0042 00C0      		rjmp .L66
 640               	.L68:
 641               	.LBB304:
  67:../../LUFA/Drivers/USB/LowLevel/Template/Template_Endpoint_RW.c **** 			Length--;
 642               		.loc 3 67 0
 643 0044 CE01      		movw r24,r28
 644 0046 0196      		adiw r24,1
 645               	.LVL51:
 646 0048 FE01      		movw r30,r28
 647               	/* #APP */
 648               	 ;  67 "../../LUFA/Drivers/USB/LowLevel/Template/Template_Endpoint_RW.c" 1
 649 004a C491      		lpm r28, Z
 650               		
 651               	 ;  0 "" 2
 652               	.LVL52:
 653               	/* #NOAPP */
 654               	.LBE304:
 655               	.LBB305:
 656               	.LBB306:
 562:../../LUFA/Drivers/USB/LowLevel/Endpoint.h **** 			}
 657               		.loc 2 562 0
 658 004c C093 F100 		sts 241,r28
 659               	.LBE306:
 660               	.LBE305:
  68:../../LUFA/Drivers/USB/LowLevel/Template/Template_Endpoint_RW.c **** 		}
 661               		.loc 3 68 0
 662 0050 0150      		subi r16,1
 663 0052 1109      		sbc r17,__zero_reg__
 664               	.LVL53:
 665               	.LBB307:
  67:../../LUFA/Drivers/USB/LowLevel/Template/Template_Endpoint_RW.c **** 			Length--;
 666               		.loc 3 67 0
 667 0054 EC01      		movw r28,r24
 668               	.LVL54:
 669 0056 00C0      		rjmp .L67
 670               	.LVL55:
 671               	.L77:
 672               	.LBE307:
  72:../../LUFA/Drivers/USB/LowLevel/Template/Template_Endpoint_RW.c **** }
 673               		.loc 3 72 0
 674 0058 80E0      		ldi r24,0
 675               	.LVL56:
 676               	.L66:
 677               	/* epilogue start */
 678               		.loc 3 73 0
 679 005a DF91      		pop r29
 680 005c CF91      		pop r28
 681 005e 1F91      		pop r17
 682 0060 0F91      		pop r16
 683               	.LVL57:
 684 0062 FF90      		pop r15
 685 0064 EF90      		pop r14
 686               	.LVL58:
 687 0066 0895      		ret
 688               		.cfi_endproc
 689               	.LFE71:
 691               		.section	.text.Endpoint_Write_EStream_LE,"ax",@progbits
 692               	.global	Endpoint_Write_EStream_LE
 694               	Endpoint_Write_EStream_LE:
 695               	.LFB72:
   4:../../LUFA/Drivers/USB/LowLevel/Template/Template_Endpoint_RW.c **** 	uint8_t* DataStream = ((uint8_t*)Buffer + TEMPLATE_BUFFER_OFFSET(Length));
 696               		.loc 3 4 0
 697               		.cfi_startproc
 698               	.LVL59:
 699 0000 CF92      		push r12
 700               	.LCFI16:
 701               		.cfi_def_cfa_offset 3
 702               		.cfi_offset 12, -2
 703 0002 DF92      		push r13
 704               	.LCFI17:
 705               		.cfi_def_cfa_offset 4
 706               		.cfi_offset 13, -3
 707 0004 EF92      		push r14
 708               	.LCFI18:
 709               		.cfi_def_cfa_offset 5
 710               		.cfi_offset 14, -4
 711 0006 FF92      		push r15
 712               	.LCFI19:
 713               		.cfi_def_cfa_offset 6
 714               		.cfi_offset 15, -5
 715 0008 0F93      		push r16
 716               	.LCFI20:
 717               		.cfi_def_cfa_offset 7
 718               		.cfi_offset 16, -6
 719 000a 1F93      		push r17
 720               	.LCFI21:
 721               		.cfi_def_cfa_offset 8
 722               		.cfi_offset 17, -7
 723 000c CF93      		push r28
 724               	.LCFI22:
 725               		.cfi_def_cfa_offset 9
 726               		.cfi_offset 28, -8
 727 000e DF93      		push r29
 728               	.LCFI23:
 729               		.cfi_def_cfa_offset 10
 730               		.cfi_offset 29, -9
 731               	/* prologue: function */
 732               	/* frame size = 0 */
 733               	/* stack size = 8 */
 734               	.L__stack_usage = 8
 735 0010 8C01      		movw r16,r24
 736 0012 EB01      		movw r28,r22
 737 0014 7A01      		movw r14,r20
 738               	.LVL60:
 739               	.L84:
  62:../../LUFA/Drivers/USB/LowLevel/Template/Template_Endpoint_RW.c **** 			  return ErrorCode;
 740               		.loc 3 62 0
 741 0016 0E94 0000 		call Endpoint_WaitUntilReady
 742               	.LVL61:
 743 001a 8111      		cpse r24,__zero_reg__
 744 001c 00C0      		rjmp .L79
 745               	.LVL62:
 746               	.L80:
  51:../../LUFA/Drivers/USB/LowLevel/Template/Template_Endpoint_RW.c **** 	{
 747               		.loc 3 51 0
 748 001e 2097      		sbiw r28,0
 749 0020 01F0      		breq .L90
 750               	.LBB308:
 751               	.LBB309:
 358:../../LUFA/Drivers/USB/LowLevel/Endpoint.h **** 			}
 752               		.loc 2 358 0
 753 0022 8091 E800 		lds r24,232
 754               	.LBE309:
 755               	.LBE308:
  53:../../LUFA/Drivers/USB/LowLevel/Template/Template_Endpoint_RW.c **** 		{
 756               		.loc 3 53 0
 757 0026 85FD      		sbrc r24,5
 758 0028 00C0      		rjmp .L81
 759               	.LBB310:
 760               	.LBB311:
 454:../../LUFA/Drivers/USB/LowLevel/Endpoint.h **** 				#else
 761               		.loc 2 454 0
 762 002a 8091 E800 		lds r24,232
 763 002e 8E77      		andi r24,lo8(126)
 764 0030 8093 E800 		sts 232,r24
 765               	.LBE311:
 766               	.LBE310:
  58:../../LUFA/Drivers/USB/LowLevel/Template/Template_Endpoint_RW.c **** 			  return ENDPOINT_RWSTREAM_CallbackAborted;
 767               		.loc 3 58 0
 768 0034 E114      		cp r14,__zero_reg__
 769 0036 F104      		cpc r15,__zero_reg__
 770 0038 01F0      		breq .L84
  58:../../LUFA/Drivers/USB/LowLevel/Template/Template_Endpoint_RW.c **** 			  return ENDPOINT_RWSTREAM_CallbackAborted;
 771               		.loc 3 58 0 is_stmt 0 discriminator 1
 772 003a F701      		movw r30,r14
 773 003c 0995      		icall
 774               	.LVL63:
 775 003e 8130      		cpi r24,lo8(1)
 776 0040 01F4      		brne .L84
  59:../../LUFA/Drivers/USB/LowLevel/Template/Template_Endpoint_RW.c **** 			#endif
 777               		.loc 3 59 0 is_stmt 1
 778 0042 85E0      		ldi r24,lo8(5)
 779 0044 00C0      		rjmp .L79
 780               	.L81:
  67:../../LUFA/Drivers/USB/LowLevel/Template/Template_Endpoint_RW.c **** 			Length--;
 781               		.loc 3 67 0
 782 0046 6801      		movw r12,r16
 783 0048 FFEF      		ldi r31,-1
 784 004a CF1A      		sub r12,r31
 785 004c DF0A      		sbc r13,r31
 786               	.LVL64:
 787 004e C801      		movw r24,r16
 788 0050 0E94 0000 		call eeprom_read_byte
 789               	.LVL65:
 790               	.LBB312:
 791               	.LBB313:
 562:../../LUFA/Drivers/USB/LowLevel/Endpoint.h **** 			}
 792               		.loc 2 562 0
 793 0054 8093 F100 		sts 241,r24
 794               	.LBE313:
 795               	.LBE312:
  68:../../LUFA/Drivers/USB/LowLevel/Template/Template_Endpoint_RW.c **** 		}
 796               		.loc 3 68 0
 797 0058 2197      		sbiw r28,1
 798               	.LVL66:
  67:../../LUFA/Drivers/USB/LowLevel/Template/Template_Endpoint_RW.c **** 			Length--;
 799               		.loc 3 67 0
 800 005a 8601      		movw r16,r12
 801 005c 00C0      		rjmp .L80
 802               	.LVL67:
 803               	.L90:
  72:../../LUFA/Drivers/USB/LowLevel/Template/Template_Endpoint_RW.c **** }
 804               		.loc 3 72 0
 805 005e 80E0      		ldi r24,0
 806               	.LVL68:
 807               	.L79:
 808               	/* epilogue start */
 809               		.loc 3 73 0
 810 0060 DF91      		pop r29
 811 0062 CF91      		pop r28
 812               	.LVL69:
 813 0064 1F91      		pop r17
 814 0066 0F91      		pop r16
 815 0068 FF90      		pop r15
 816 006a EF90      		pop r14
 817               	.LVL70:
 818 006c DF90      		pop r13
 819 006e CF90      		pop r12
 820 0070 0895      		ret
 821               		.cfi_endproc
 822               	.LFE72:
 824               		.section	.text.Endpoint_Write_Stream_BE,"ax",@progbits
 825               	.global	Endpoint_Write_Stream_BE
 827               	Endpoint_Write_Stream_BE:
 828               	.LFB73:
   4:../../LUFA/Drivers/USB/LowLevel/Template/Template_Endpoint_RW.c **** 	uint8_t* DataStream = ((uint8_t*)Buffer + TEMPLATE_BUFFER_OFFSET(Length));
 829               		.loc 3 4 0
 830               		.cfi_startproc
 831               	.LVL71:
 832 0000 EF92      		push r14
 833               	.LCFI24:
 834               		.cfi_def_cfa_offset 3
 835               		.cfi_offset 14, -2
 836 0002 FF92      		push r15
 837               	.LCFI25:
 838               		.cfi_def_cfa_offset 4
 839               		.cfi_offset 15, -3
 840 0004 0F93      		push r16
 841               	.LCFI26:
 842               		.cfi_def_cfa_offset 5
 843               		.cfi_offset 16, -4
 844 0006 1F93      		push r17
 845               	.LCFI27:
 846               		.cfi_def_cfa_offset 6
 847               		.cfi_offset 17, -5
 848 0008 CF93      		push r28
 849               	.LCFI28:
 850               		.cfi_def_cfa_offset 7
 851               		.cfi_offset 28, -6
 852 000a DF93      		push r29
 853               	.LCFI29:
 854               		.cfi_def_cfa_offset 8
 855               		.cfi_offset 29, -7
 856               	/* prologue: function */
 857               	/* frame size = 0 */
 858               	/* stack size = 6 */
 859               	.L__stack_usage = 6
 860 000c EC01      		movw r28,r24
 861 000e 8B01      		movw r16,r22
 862 0010 7A01      		movw r14,r20
 863               	.LVL72:
   8:../../LUFA/Drivers/USB/LowLevel/Template/Template_Endpoint_RW.c **** 	  return ErrorCode;
 864               		.loc 3 8 0
 865 0012 0E94 0000 		call Endpoint_WaitUntilReady
 866               	.LVL73:
 867 0016 8111      		cpse r24,__zero_reg__
 868 0018 00C0      		rjmp .L92
   5:../../LUFA/Drivers/USB/LowLevel/Template/Template_Endpoint_RW.c **** 	uint8_t  ErrorCode;
 869               		.loc 3 5 0
 870 001a 9801      		movw r18,r16
 871 001c 2150      		subi r18,1
 872 001e 3109      		sbc r19,__zero_reg__
 873               	.LVL74:
 874 0020 C20F      		add r28,r18
 875 0022 D31F      		adc r29,r19
 876               	.LVL75:
 877               	.L93:
  51:../../LUFA/Drivers/USB/LowLevel/Template/Template_Endpoint_RW.c **** 	{
 878               		.loc 3 51 0
 879 0024 0115      		cp r16,__zero_reg__
 880 0026 1105      		cpc r17,__zero_reg__
 881 0028 01F0      		breq .L102
 882               	.LBB314:
 883               	.LBB315:
 358:../../LUFA/Drivers/USB/LowLevel/Endpoint.h **** 			}
 884               		.loc 2 358 0
 885 002a 8091 E800 		lds r24,232
 886               	.LBE315:
 887               	.LBE314:
  53:../../LUFA/Drivers/USB/LowLevel/Template/Template_Endpoint_RW.c **** 		{
 888               		.loc 3 53 0
 889 002e 85FD      		sbrc r24,5
 890 0030 00C0      		rjmp .L94
 891               	.LBB316:
 892               	.LBB317:
 454:../../LUFA/Drivers/USB/LowLevel/Endpoint.h **** 				#else
 893               		.loc 2 454 0
 894 0032 8091 E800 		lds r24,232
 895 0036 8E77      		andi r24,lo8(126)
 896 0038 8093 E800 		sts 232,r24
 897               	.LBE317:
 898               	.LBE316:
  58:../../LUFA/Drivers/USB/LowLevel/Template/Template_Endpoint_RW.c **** 			  return ENDPOINT_RWSTREAM_CallbackAborted;
 899               		.loc 3 58 0
 900 003c E114      		cp r14,__zero_reg__
 901 003e F104      		cpc r15,__zero_reg__
 902 0040 01F4      		brne .L95
 903               	.L97:
  62:../../LUFA/Drivers/USB/LowLevel/Template/Template_Endpoint_RW.c **** 			  return ErrorCode;
 904               		.loc 3 62 0
 905 0042 0E94 0000 		call Endpoint_WaitUntilReady
 906               	.LVL76:
 907 0046 8823      		tst r24
 908 0048 01F0      		breq .L93
 909 004a 00C0      		rjmp .L92
 910               	.LVL77:
 911               	.L95:
  58:../../LUFA/Drivers/USB/LowLevel/Template/Template_Endpoint_RW.c **** 			  return ENDPOINT_RWSTREAM_CallbackAborted;
 912               		.loc 3 58 0 discriminator 1
 913 004c F701      		movw r30,r14
 914 004e 0995      		icall
 915               	.LVL78:
 916 0050 8130      		cpi r24,lo8(1)
 917 0052 01F4      		brne .L97
  59:../../LUFA/Drivers/USB/LowLevel/Template/Template_Endpoint_RW.c **** 			#endif
 918               		.loc 3 59 0
 919 0054 85E0      		ldi r24,lo8(5)
 920 0056 00C0      		rjmp .L92
 921               	.L94:
 922               	.LVL79:
  67:../../LUFA/Drivers/USB/LowLevel/Template/Template_Endpoint_RW.c **** 			Length--;
 923               		.loc 3 67 0
 924 0058 8881      		ld r24,Y
 925               	.LVL80:
 926               	.LBB318:
 927               	.LBB319:
 562:../../LUFA/Drivers/USB/LowLevel/Endpoint.h **** 			}
 928               		.loc 2 562 0
 929 005a 8093 F100 		sts 241,r24
 930               	.LBE319:
 931               	.LBE318:
  68:../../LUFA/Drivers/USB/LowLevel/Template/Template_Endpoint_RW.c **** 		}
 932               		.loc 3 68 0
 933 005e 0150      		subi r16,1
 934 0060 1109      		sbc r17,__zero_reg__
 935               	.LVL81:
  67:../../LUFA/Drivers/USB/LowLevel/Template/Template_Endpoint_RW.c **** 			Length--;
 936               		.loc 3 67 0
 937 0062 2197      		sbiw r28,1
 938               	.LVL82:
 939 0064 00C0      		rjmp .L93
 940               	.LVL83:
 941               	.L102:
  72:../../LUFA/Drivers/USB/LowLevel/Template/Template_Endpoint_RW.c **** }
 942               		.loc 3 72 0
 943 0066 80E0      		ldi r24,0
 944               	.LVL84:
 945               	.L92:
 946               	/* epilogue start */
 947               		.loc 3 73 0
 948 0068 DF91      		pop r29
 949 006a CF91      		pop r28
 950 006c 1F91      		pop r17
 951 006e 0F91      		pop r16
 952               	.LVL85:
 953 0070 FF90      		pop r15
 954 0072 EF90      		pop r14
 955               	.LVL86:
 956 0074 0895      		ret
 957               		.cfi_endproc
 958               	.LFE73:
 960               		.section	.text.Endpoint_Write_EStream_BE,"ax",@progbits
 961               	.global	Endpoint_Write_EStream_BE
 963               	Endpoint_Write_EStream_BE:
 964               	.LFB74:
   4:../../LUFA/Drivers/USB/LowLevel/Template/Template_Endpoint_RW.c **** 	uint8_t* DataStream = ((uint8_t*)Buffer + TEMPLATE_BUFFER_OFFSET(Length));
 965               		.loc 3 4 0
 966               		.cfi_startproc
 967               	.LVL87:
 968 0000 CF92      		push r12
 969               	.LCFI30:
 970               		.cfi_def_cfa_offset 3
 971               		.cfi_offset 12, -2
 972 0002 DF92      		push r13
 973               	.LCFI31:
 974               		.cfi_def_cfa_offset 4
 975               		.cfi_offset 13, -3
 976 0004 EF92      		push r14
 977               	.LCFI32:
 978               		.cfi_def_cfa_offset 5
 979               		.cfi_offset 14, -4
 980 0006 FF92      		push r15
 981               	.LCFI33:
 982               		.cfi_def_cfa_offset 6
 983               		.cfi_offset 15, -5
 984 0008 0F93      		push r16
 985               	.LCFI34:
 986               		.cfi_def_cfa_offset 7
 987               		.cfi_offset 16, -6
 988 000a 1F93      		push r17
 989               	.LCFI35:
 990               		.cfi_def_cfa_offset 8
 991               		.cfi_offset 17, -7
 992 000c CF93      		push r28
 993               	.LCFI36:
 994               		.cfi_def_cfa_offset 9
 995               		.cfi_offset 28, -8
 996 000e DF93      		push r29
 997               	.LCFI37:
 998               		.cfi_def_cfa_offset 10
 999               		.cfi_offset 29, -9
 1000               	/* prologue: function */
 1001               	/* frame size = 0 */
 1002               	/* stack size = 8 */
 1003               	.L__stack_usage = 8
 1004 0010 EC01      		movw r28,r24
 1005 0012 8B01      		movw r16,r22
 1006 0014 7A01      		movw r14,r20
 1007               	.LVL88:
   8:../../LUFA/Drivers/USB/LowLevel/Template/Template_Endpoint_RW.c **** 	  return ErrorCode;
 1008               		.loc 3 8 0
 1009 0016 0E94 0000 		call Endpoint_WaitUntilReady
 1010               	.LVL89:
 1011 001a 8111      		cpse r24,__zero_reg__
 1012 001c 00C0      		rjmp .L104
   5:../../LUFA/Drivers/USB/LowLevel/Template/Template_Endpoint_RW.c **** 	uint8_t  ErrorCode;
 1013               		.loc 3 5 0
 1014 001e 9801      		movw r18,r16
 1015 0020 2150      		subi r18,1
 1016 0022 3109      		sbc r19,__zero_reg__
 1017               	.LVL90:
 1018 0024 C20F      		add r28,r18
 1019 0026 D31F      		adc r29,r19
 1020               	.LVL91:
 1021               	.L105:
  51:../../LUFA/Drivers/USB/LowLevel/Template/Template_Endpoint_RW.c **** 	{
 1022               		.loc 3 51 0
 1023 0028 0115      		cp r16,__zero_reg__
 1024 002a 1105      		cpc r17,__zero_reg__
 1025 002c 01F0      		breq .L114
 1026               	.LBB320:
 1027               	.LBB321:
 358:../../LUFA/Drivers/USB/LowLevel/Endpoint.h **** 			}
 1028               		.loc 2 358 0
 1029 002e 8091 E800 		lds r24,232
 1030               	.LBE321:
 1031               	.LBE320:
  53:../../LUFA/Drivers/USB/LowLevel/Template/Template_Endpoint_RW.c **** 		{
 1032               		.loc 3 53 0
 1033 0032 85FD      		sbrc r24,5
 1034 0034 00C0      		rjmp .L106
 1035               	.LBB322:
 1036               	.LBB323:
 454:../../LUFA/Drivers/USB/LowLevel/Endpoint.h **** 				#else
 1037               		.loc 2 454 0
 1038 0036 8091 E800 		lds r24,232
 1039 003a 8E77      		andi r24,lo8(126)
 1040 003c 8093 E800 		sts 232,r24
 1041               	.LBE323:
 1042               	.LBE322:
  58:../../LUFA/Drivers/USB/LowLevel/Template/Template_Endpoint_RW.c **** 			  return ENDPOINT_RWSTREAM_CallbackAborted;
 1043               		.loc 3 58 0
 1044 0040 E114      		cp r14,__zero_reg__
 1045 0042 F104      		cpc r15,__zero_reg__
 1046 0044 01F4      		brne .L107
 1047               	.L109:
  62:../../LUFA/Drivers/USB/LowLevel/Template/Template_Endpoint_RW.c **** 			  return ErrorCode;
 1048               		.loc 3 62 0
 1049 0046 0E94 0000 		call Endpoint_WaitUntilReady
 1050               	.LVL92:
 1051 004a 8823      		tst r24
 1052 004c 01F0      		breq .L105
 1053 004e 00C0      		rjmp .L104
 1054               	.LVL93:
 1055               	.L107:
  58:../../LUFA/Drivers/USB/LowLevel/Template/Template_Endpoint_RW.c **** 			  return ENDPOINT_RWSTREAM_CallbackAborted;
 1056               		.loc 3 58 0 discriminator 1
 1057 0050 F701      		movw r30,r14
 1058 0052 0995      		icall
 1059               	.LVL94:
 1060 0054 8130      		cpi r24,lo8(1)
 1061 0056 01F4      		brne .L109
  59:../../LUFA/Drivers/USB/LowLevel/Template/Template_Endpoint_RW.c **** 			#endif
 1062               		.loc 3 59 0
 1063 0058 85E0      		ldi r24,lo8(5)
 1064 005a 00C0      		rjmp .L104
 1065               	.L106:
  67:../../LUFA/Drivers/USB/LowLevel/Template/Template_Endpoint_RW.c **** 			Length--;
 1066               		.loc 3 67 0
 1067 005c 6E01      		movw r12,r28
 1068 005e F1E0      		ldi r31,1
 1069 0060 CF1A      		sub r12,r31
 1070 0062 D108      		sbc r13,__zero_reg__
 1071               	.LVL95:
 1072 0064 CE01      		movw r24,r28
 1073 0066 0E94 0000 		call eeprom_read_byte
 1074               	.LVL96:
 1075               	.LBB324:
 1076               	.LBB325:
 562:../../LUFA/Drivers/USB/LowLevel/Endpoint.h **** 			}
 1077               		.loc 2 562 0
 1078 006a 8093 F100 		sts 241,r24
 1079               	.LBE325:
 1080               	.LBE324:
  68:../../LUFA/Drivers/USB/LowLevel/Template/Template_Endpoint_RW.c **** 		}
 1081               		.loc 3 68 0
 1082 006e 0150      		subi r16,1
 1083 0070 1109      		sbc r17,__zero_reg__
 1084               	.LVL97:
  67:../../LUFA/Drivers/USB/LowLevel/Template/Template_Endpoint_RW.c **** 			Length--;
 1085               		.loc 3 67 0
 1086 0072 E601      		movw r28,r12
 1087 0074 00C0      		rjmp .L105
 1088               	.LVL98:
 1089               	.L114:
  72:../../LUFA/Drivers/USB/LowLevel/Template/Template_Endpoint_RW.c **** }
 1090               		.loc 3 72 0
 1091 0076 80E0      		ldi r24,0
 1092               	.LVL99:
 1093               	.L104:
 1094               	/* epilogue start */
 1095               		.loc 3 73 0
 1096 0078 DF91      		pop r29
 1097 007a CF91      		pop r28
 1098 007c 1F91      		pop r17
 1099 007e 0F91      		pop r16
 1100               	.LVL100:
 1101 0080 FF90      		pop r15
 1102 0082 EF90      		pop r14
 1103               	.LVL101:
 1104 0084 DF90      		pop r13
 1105 0086 CF90      		pop r12
 1106 0088 0895      		ret
 1107               		.cfi_endproc
 1108               	.LFE74:
 1110               		.section	.text.Endpoint_Write_PStream_BE,"ax",@progbits
 1111               	.global	Endpoint_Write_PStream_BE
 1113               	Endpoint_Write_PStream_BE:
 1114               	.LFB75:
   4:../../LUFA/Drivers/USB/LowLevel/Template/Template_Endpoint_RW.c **** 	uint8_t* DataStream = ((uint8_t*)Buffer + TEMPLATE_BUFFER_OFFSET(Length));
 1115               		.loc 3 4 0
 1116               		.cfi_startproc
 1117               	.LVL102:
 1118 0000 EF92      		push r14
 1119               	.LCFI38:
 1120               		.cfi_def_cfa_offset 3
 1121               		.cfi_offset 14, -2
 1122 0002 FF92      		push r15
 1123               	.LCFI39:
 1124               		.cfi_def_cfa_offset 4
 1125               		.cfi_offset 15, -3
 1126 0004 0F93      		push r16
 1127               	.LCFI40:
 1128               		.cfi_def_cfa_offset 5
 1129               		.cfi_offset 16, -4
 1130 0006 1F93      		push r17
 1131               	.LCFI41:
 1132               		.cfi_def_cfa_offset 6
 1133               		.cfi_offset 17, -5
 1134 0008 CF93      		push r28
 1135               	.LCFI42:
 1136               		.cfi_def_cfa_offset 7
 1137               		.cfi_offset 28, -6
 1138 000a DF93      		push r29
 1139               	.LCFI43:
 1140               		.cfi_def_cfa_offset 8
 1141               		.cfi_offset 29, -7
 1142               	/* prologue: function */
 1143               	/* frame size = 0 */
 1144               	/* stack size = 6 */
 1145               	.L__stack_usage = 6
 1146 000c EC01      		movw r28,r24
 1147 000e 8B01      		movw r16,r22
 1148 0010 7A01      		movw r14,r20
 1149               	.LVL103:
   8:../../LUFA/Drivers/USB/LowLevel/Template/Template_Endpoint_RW.c **** 	  return ErrorCode;
 1150               		.loc 3 8 0
 1151 0012 0E94 0000 		call Endpoint_WaitUntilReady
 1152               	.LVL104:
 1153 0016 8111      		cpse r24,__zero_reg__
 1154 0018 00C0      		rjmp .L116
   5:../../LUFA/Drivers/USB/LowLevel/Template/Template_Endpoint_RW.c **** 	uint8_t  ErrorCode;
 1155               		.loc 3 5 0
 1156 001a 9801      		movw r18,r16
 1157 001c 2150      		subi r18,1
 1158 001e 3109      		sbc r19,__zero_reg__
 1159               	.LVL105:
 1160 0020 C20F      		add r28,r18
 1161 0022 D31F      		adc r29,r19
 1162               	.LVL106:
 1163               	.L117:
  51:../../LUFA/Drivers/USB/LowLevel/Template/Template_Endpoint_RW.c **** 	{
 1164               		.loc 3 51 0
 1165 0024 0115      		cp r16,__zero_reg__
 1166 0026 1105      		cpc r17,__zero_reg__
 1167 0028 01F0      		breq .L126
 1168               	.LBB326:
 1169               	.LBB327:
 358:../../LUFA/Drivers/USB/LowLevel/Endpoint.h **** 			}
 1170               		.loc 2 358 0
 1171 002a 8091 E800 		lds r24,232
 1172               	.LBE327:
 1173               	.LBE326:
  53:../../LUFA/Drivers/USB/LowLevel/Template/Template_Endpoint_RW.c **** 		{
 1174               		.loc 3 53 0
 1175 002e 85FD      		sbrc r24,5
 1176 0030 00C0      		rjmp .L118
 1177               	.LBB328:
 1178               	.LBB329:
 454:../../LUFA/Drivers/USB/LowLevel/Endpoint.h **** 				#else
 1179               		.loc 2 454 0
 1180 0032 8091 E800 		lds r24,232
 1181 0036 8E77      		andi r24,lo8(126)
 1182 0038 8093 E800 		sts 232,r24
 1183               	.LBE329:
 1184               	.LBE328:
  58:../../LUFA/Drivers/USB/LowLevel/Template/Template_Endpoint_RW.c **** 			  return ENDPOINT_RWSTREAM_CallbackAborted;
 1185               		.loc 3 58 0
 1186 003c E114      		cp r14,__zero_reg__
 1187 003e F104      		cpc r15,__zero_reg__
 1188 0040 01F4      		brne .L119
 1189               	.L121:
  62:../../LUFA/Drivers/USB/LowLevel/Template/Template_Endpoint_RW.c **** 			  return ErrorCode;
 1190               		.loc 3 62 0
 1191 0042 0E94 0000 		call Endpoint_WaitUntilReady
 1192               	.LVL107:
 1193 0046 8823      		tst r24
 1194 0048 01F0      		breq .L117
 1195 004a 00C0      		rjmp .L116
 1196               	.LVL108:
 1197               	.L119:
  58:../../LUFA/Drivers/USB/LowLevel/Template/Template_Endpoint_RW.c **** 			  return ENDPOINT_RWSTREAM_CallbackAborted;
 1198               		.loc 3 58 0 discriminator 1
 1199 004c F701      		movw r30,r14
 1200 004e 0995      		icall
 1201               	.LVL109:
 1202 0050 8130      		cpi r24,lo8(1)
 1203 0052 01F4      		brne .L121
  59:../../LUFA/Drivers/USB/LowLevel/Template/Template_Endpoint_RW.c **** 			#endif
 1204               		.loc 3 59 0
 1205 0054 85E0      		ldi r24,lo8(5)
 1206 0056 00C0      		rjmp .L116
 1207               	.L118:
 1208               	.LBB330:
  67:../../LUFA/Drivers/USB/LowLevel/Template/Template_Endpoint_RW.c **** 			Length--;
 1209               		.loc 3 67 0
 1210 0058 CE01      		movw r24,r28
 1211 005a 0197      		sbiw r24,1
 1212               	.LVL110:
 1213 005c FE01      		movw r30,r28
 1214               	/* #APP */
 1215               	 ;  67 "../../LUFA/Drivers/USB/LowLevel/Template/Template_Endpoint_RW.c" 1
 1216 005e C491      		lpm r28, Z
 1217               		
 1218               	 ;  0 "" 2
 1219               	.LVL111:
 1220               	/* #NOAPP */
 1221               	.LBE330:
 1222               	.LBB331:
 1223               	.LBB332:
 562:../../LUFA/Drivers/USB/LowLevel/Endpoint.h **** 			}
 1224               		.loc 2 562 0
 1225 0060 C093 F100 		sts 241,r28
 1226               	.LBE332:
 1227               	.LBE331:
  68:../../LUFA/Drivers/USB/LowLevel/Template/Template_Endpoint_RW.c **** 		}
 1228               		.loc 3 68 0
 1229 0064 0150      		subi r16,1
 1230 0066 1109      		sbc r17,__zero_reg__
 1231               	.LVL112:
 1232               	.LBB333:
  67:../../LUFA/Drivers/USB/LowLevel/Template/Template_Endpoint_RW.c **** 			Length--;
 1233               		.loc 3 67 0
 1234 0068 EC01      		movw r28,r24
 1235               	.LVL113:
 1236 006a 00C0      		rjmp .L117
 1237               	.LVL114:
 1238               	.L126:
 1239               	.LBE333:
  72:../../LUFA/Drivers/USB/LowLevel/Template/Template_Endpoint_RW.c **** }
 1240               		.loc 3 72 0
 1241 006c 80E0      		ldi r24,0
 1242               	.LVL115:
 1243               	.L116:
 1244               	/* epilogue start */
 1245               		.loc 3 73 0
 1246 006e DF91      		pop r29
 1247 0070 CF91      		pop r28
 1248 0072 1F91      		pop r17
 1249 0074 0F91      		pop r16
 1250               	.LVL116:
 1251 0076 FF90      		pop r15
 1252 0078 EF90      		pop r14
 1253               	.LVL117:
 1254 007a 0895      		ret
 1255               		.cfi_endproc
 1256               	.LFE75:
 1258               		.section	.text.Endpoint_Read_Stream_LE,"ax",@progbits
 1259               	.global	Endpoint_Read_Stream_LE
 1261               	Endpoint_Read_Stream_LE:
 1262               	.LFB76:
   4:../../LUFA/Drivers/USB/LowLevel/Template/Template_Endpoint_RW.c **** 	uint8_t* DataStream = ((uint8_t*)Buffer + TEMPLATE_BUFFER_OFFSET(Length));
 1263               		.loc 3 4 0
 1264               		.cfi_startproc
 1265               	.LVL118:
 1266 0000 EF92      		push r14
 1267               	.LCFI44:
 1268               		.cfi_def_cfa_offset 3
 1269               		.cfi_offset 14, -2
 1270 0002 FF92      		push r15
 1271               	.LCFI45:
 1272               		.cfi_def_cfa_offset 4
 1273               		.cfi_offset 15, -3
 1274 0004 0F93      		push r16
 1275               	.LCFI46:
 1276               		.cfi_def_cfa_offset 5
 1277               		.cfi_offset 16, -4
 1278 0006 1F93      		push r17
 1279               	.LCFI47:
 1280               		.cfi_def_cfa_offset 6
 1281               		.cfi_offset 17, -5
 1282 0008 CF93      		push r28
 1283               	.LCFI48:
 1284               		.cfi_def_cfa_offset 7
 1285               		.cfi_offset 28, -6
 1286 000a DF93      		push r29
 1287               	.LCFI49:
 1288               		.cfi_def_cfa_offset 8
 1289               		.cfi_offset 29, -7
 1290               	/* prologue: function */
 1291               	/* frame size = 0 */
 1292               	/* stack size = 6 */
 1293               	.L__stack_usage = 6
 1294 000c 8C01      		movw r16,r24
 1295 000e EB01      		movw r28,r22
 1296 0010 7A01      		movw r14,r20
 1297               	.LVL119:
 1298               	.L133:
  62:../../LUFA/Drivers/USB/LowLevel/Template/Template_Endpoint_RW.c **** 			  return ErrorCode;
 1299               		.loc 3 62 0
 1300 0012 0E94 0000 		call Endpoint_WaitUntilReady
 1301               	.LVL120:
 1302 0016 8111      		cpse r24,__zero_reg__
 1303 0018 00C0      		rjmp .L128
 1304               	.LVL121:
 1305               	.L129:
  51:../../LUFA/Drivers/USB/LowLevel/Template/Template_Endpoint_RW.c **** 	{
 1306               		.loc 3 51 0
 1307 001a 2097      		sbiw r28,0
 1308 001c 01F0      		breq .L139
 1309               	.LBB334:
 1310               	.LBB335:
 358:../../LUFA/Drivers/USB/LowLevel/Endpoint.h **** 			}
 1311               		.loc 2 358 0
 1312 001e 8091 E800 		lds r24,232
 1313               	.LBE335:
 1314               	.LBE334:
  53:../../LUFA/Drivers/USB/LowLevel/Template/Template_Endpoint_RW.c **** 		{
 1315               		.loc 3 53 0
 1316 0022 85FD      		sbrc r24,5
 1317 0024 00C0      		rjmp .L130
 1318               	.LBB336:
 1319               	.LBB337:
 469:../../LUFA/Drivers/USB/LowLevel/Endpoint.h **** 				#else
 1320               		.loc 2 469 0
 1321 0026 8091 E800 		lds r24,232
 1322 002a 8B77      		andi r24,lo8(123)
 1323 002c 8093 E800 		sts 232,r24
 1324               	.LBE337:
 1325               	.LBE336:
  58:../../LUFA/Drivers/USB/LowLevel/Template/Template_Endpoint_RW.c **** 			  return ENDPOINT_RWSTREAM_CallbackAborted;
 1326               		.loc 3 58 0
 1327 0030 E114      		cp r14,__zero_reg__
 1328 0032 F104      		cpc r15,__zero_reg__
 1329 0034 01F0      		breq .L133
  58:../../LUFA/Drivers/USB/LowLevel/Template/Template_Endpoint_RW.c **** 			  return ENDPOINT_RWSTREAM_CallbackAborted;
 1330               		.loc 3 58 0 is_stmt 0 discriminator 1
 1331 0036 F701      		movw r30,r14
 1332 0038 0995      		icall
 1333               	.LVL122:
 1334 003a 8130      		cpi r24,lo8(1)
 1335 003c 01F4      		brne .L133
  59:../../LUFA/Drivers/USB/LowLevel/Template/Template_Endpoint_RW.c **** 			#endif
 1336               		.loc 3 59 0 is_stmt 1
 1337 003e 85E0      		ldi r24,lo8(5)
 1338 0040 00C0      		rjmp .L128
 1339               	.L130:
 1340               	.LVL123:
 1341               	.LBB338:
 1342               	.LBB339:
 550:../../LUFA/Drivers/USB/LowLevel/Endpoint.h **** 			}
 1343               		.loc 2 550 0
 1344 0042 8091 F100 		lds r24,241
 1345               	.LBE339:
 1346               	.LBE338:
  67:../../LUFA/Drivers/USB/LowLevel/Template/Template_Endpoint_RW.c **** 			Length--;
 1347               		.loc 3 67 0
 1348 0046 F801      		movw r30,r16
 1349 0048 8083      		st Z,r24
  68:../../LUFA/Drivers/USB/LowLevel/Template/Template_Endpoint_RW.c **** 		}
 1350               		.loc 3 68 0
 1351 004a 2197      		sbiw r28,1
 1352               	.LVL124:
  67:../../LUFA/Drivers/USB/LowLevel/Template/Template_Endpoint_RW.c **** 			Length--;
 1353               		.loc 3 67 0
 1354 004c 0F5F      		subi r16,-1
 1355 004e 1F4F      		sbci r17,-1
 1356               	.LVL125:
 1357 0050 00C0      		rjmp .L129
 1358               	.L139:
  72:../../LUFA/Drivers/USB/LowLevel/Template/Template_Endpoint_RW.c **** }
 1359               		.loc 3 72 0
 1360 0052 80E0      		ldi r24,0
 1361               	.LVL126:
 1362               	.L128:
 1363               	/* epilogue start */
 1364               		.loc 3 73 0
 1365 0054 DF91      		pop r29
 1366 0056 CF91      		pop r28
 1367               	.LVL127:
 1368 0058 1F91      		pop r17
 1369 005a 0F91      		pop r16
 1370 005c FF90      		pop r15
 1371 005e EF90      		pop r14
 1372               	.LVL128:
 1373 0060 0895      		ret
 1374               		.cfi_endproc
 1375               	.LFE76:
 1377               		.section	.text.Endpoint_Read_EStream_LE,"ax",@progbits
 1378               	.global	Endpoint_Read_EStream_LE
 1380               	Endpoint_Read_EStream_LE:
 1381               	.LFB77:
   4:../../LUFA/Drivers/USB/LowLevel/Template/Template_Endpoint_RW.c **** 	uint8_t* DataStream = ((uint8_t*)Buffer + TEMPLATE_BUFFER_OFFSET(Length));
 1382               		.loc 3 4 0
 1383               		.cfi_startproc
 1384               	.LVL129:
 1385 0000 CF92      		push r12
 1386               	.LCFI50:
 1387               		.cfi_def_cfa_offset 3
 1388               		.cfi_offset 12, -2
 1389 0002 DF92      		push r13
 1390               	.LCFI51:
 1391               		.cfi_def_cfa_offset 4
 1392               		.cfi_offset 13, -3
 1393 0004 EF92      		push r14
 1394               	.LCFI52:
 1395               		.cfi_def_cfa_offset 5
 1396               		.cfi_offset 14, -4
 1397 0006 FF92      		push r15
 1398               	.LCFI53:
 1399               		.cfi_def_cfa_offset 6
 1400               		.cfi_offset 15, -5
 1401 0008 0F93      		push r16
 1402               	.LCFI54:
 1403               		.cfi_def_cfa_offset 7
 1404               		.cfi_offset 16, -6
 1405 000a 1F93      		push r17
 1406               	.LCFI55:
 1407               		.cfi_def_cfa_offset 8
 1408               		.cfi_offset 17, -7
 1409 000c CF93      		push r28
 1410               	.LCFI56:
 1411               		.cfi_def_cfa_offset 9
 1412               		.cfi_offset 28, -8
 1413 000e DF93      		push r29
 1414               	.LCFI57:
 1415               		.cfi_def_cfa_offset 10
 1416               		.cfi_offset 29, -9
 1417               	/* prologue: function */
 1418               	/* frame size = 0 */
 1419               	/* stack size = 8 */
 1420               	.L__stack_usage = 8
 1421 0010 8C01      		movw r16,r24
 1422 0012 EB01      		movw r28,r22
 1423 0014 7A01      		movw r14,r20
 1424               	.LVL130:
 1425               	.L146:
  62:../../LUFA/Drivers/USB/LowLevel/Template/Template_Endpoint_RW.c **** 			  return ErrorCode;
 1426               		.loc 3 62 0
 1427 0016 0E94 0000 		call Endpoint_WaitUntilReady
 1428               	.LVL131:
 1429 001a 8111      		cpse r24,__zero_reg__
 1430 001c 00C0      		rjmp .L141
 1431               	.LVL132:
 1432               	.L142:
  51:../../LUFA/Drivers/USB/LowLevel/Template/Template_Endpoint_RW.c **** 	{
 1433               		.loc 3 51 0
 1434 001e 2097      		sbiw r28,0
 1435 0020 01F0      		breq .L152
 1436               	.LBB340:
 1437               	.LBB341:
 358:../../LUFA/Drivers/USB/LowLevel/Endpoint.h **** 			}
 1438               		.loc 2 358 0
 1439 0022 8091 E800 		lds r24,232
 1440               	.LBE341:
 1441               	.LBE340:
  53:../../LUFA/Drivers/USB/LowLevel/Template/Template_Endpoint_RW.c **** 		{
 1442               		.loc 3 53 0
 1443 0026 85FD      		sbrc r24,5
 1444 0028 00C0      		rjmp .L143
 1445               	.LBB342:
 1446               	.LBB343:
 469:../../LUFA/Drivers/USB/LowLevel/Endpoint.h **** 				#else
 1447               		.loc 2 469 0
 1448 002a 8091 E800 		lds r24,232
 1449 002e 8B77      		andi r24,lo8(123)
 1450 0030 8093 E800 		sts 232,r24
 1451               	.LBE343:
 1452               	.LBE342:
  58:../../LUFA/Drivers/USB/LowLevel/Template/Template_Endpoint_RW.c **** 			  return ENDPOINT_RWSTREAM_CallbackAborted;
 1453               		.loc 3 58 0
 1454 0034 E114      		cp r14,__zero_reg__
 1455 0036 F104      		cpc r15,__zero_reg__
 1456 0038 01F0      		breq .L146
  58:../../LUFA/Drivers/USB/LowLevel/Template/Template_Endpoint_RW.c **** 			  return ENDPOINT_RWSTREAM_CallbackAborted;
 1457               		.loc 3 58 0 is_stmt 0 discriminator 1
 1458 003a F701      		movw r30,r14
 1459 003c 0995      		icall
 1460               	.LVL133:
 1461 003e 8130      		cpi r24,lo8(1)
 1462 0040 01F4      		brne .L146
  59:../../LUFA/Drivers/USB/LowLevel/Template/Template_Endpoint_RW.c **** 			#endif
 1463               		.loc 3 59 0 is_stmt 1
 1464 0042 85E0      		ldi r24,lo8(5)
 1465 0044 00C0      		rjmp .L141
 1466               	.L143:
 1467               	.LBB344:
 1468               	.LBB345:
 550:../../LUFA/Drivers/USB/LowLevel/Endpoint.h **** 			}
 1469               		.loc 2 550 0
 1470 0046 6091 F100 		lds r22,241
 1471               	.LBE345:
 1472               	.LBE344:
  67:../../LUFA/Drivers/USB/LowLevel/Template/Template_Endpoint_RW.c **** 			Length--;
 1473               		.loc 3 67 0
 1474 004a 6801      		movw r12,r16
 1475 004c FFEF      		ldi r31,-1
 1476 004e CF1A      		sub r12,r31
 1477 0050 DF0A      		sbc r13,r31
 1478               	.LVL134:
 1479 0052 C801      		movw r24,r16
 1480 0054 0E94 0000 		call eeprom_update_byte
 1481               	.LVL135:
  68:../../LUFA/Drivers/USB/LowLevel/Template/Template_Endpoint_RW.c **** 		}
 1482               		.loc 3 68 0
 1483 0058 2197      		sbiw r28,1
 1484               	.LVL136:
  67:../../LUFA/Drivers/USB/LowLevel/Template/Template_Endpoint_RW.c **** 			Length--;
 1485               		.loc 3 67 0
 1486 005a 8601      		movw r16,r12
 1487 005c 00C0      		rjmp .L142
 1488               	.LVL137:
 1489               	.L152:
  72:../../LUFA/Drivers/USB/LowLevel/Template/Template_Endpoint_RW.c **** }
 1490               		.loc 3 72 0
 1491 005e 80E0      		ldi r24,0
 1492               	.LVL138:
 1493               	.L141:
 1494               	/* epilogue start */
 1495               		.loc 3 73 0
 1496 0060 DF91      		pop r29
 1497 0062 CF91      		pop r28
 1498               	.LVL139:
 1499 0064 1F91      		pop r17
 1500 0066 0F91      		pop r16
 1501 0068 FF90      		pop r15
 1502 006a EF90      		pop r14
 1503               	.LVL140:
 1504 006c DF90      		pop r13
 1505 006e CF90      		pop r12
 1506 0070 0895      		ret
 1507               		.cfi_endproc
 1508               	.LFE77:
 1510               		.section	.text.Endpoint_Read_Stream_BE,"ax",@progbits
 1511               	.global	Endpoint_Read_Stream_BE
 1513               	Endpoint_Read_Stream_BE:
 1514               	.LFB78:
   4:../../LUFA/Drivers/USB/LowLevel/Template/Template_Endpoint_RW.c **** 	uint8_t* DataStream = ((uint8_t*)Buffer + TEMPLATE_BUFFER_OFFSET(Length));
 1515               		.loc 3 4 0
 1516               		.cfi_startproc
 1517               	.LVL141:
 1518 0000 EF92      		push r14
 1519               	.LCFI58:
 1520               		.cfi_def_cfa_offset 3
 1521               		.cfi_offset 14, -2
 1522 0002 FF92      		push r15
 1523               	.LCFI59:
 1524               		.cfi_def_cfa_offset 4
 1525               		.cfi_offset 15, -3
 1526 0004 0F93      		push r16
 1527               	.LCFI60:
 1528               		.cfi_def_cfa_offset 5
 1529               		.cfi_offset 16, -4
 1530 0006 1F93      		push r17
 1531               	.LCFI61:
 1532               		.cfi_def_cfa_offset 6
 1533               		.cfi_offset 17, -5
 1534 0008 CF93      		push r28
 1535               	.LCFI62:
 1536               		.cfi_def_cfa_offset 7
 1537               		.cfi_offset 28, -6
 1538 000a DF93      		push r29
 1539               	.LCFI63:
 1540               		.cfi_def_cfa_offset 8
 1541               		.cfi_offset 29, -7
 1542               	/* prologue: function */
 1543               	/* frame size = 0 */
 1544               	/* stack size = 6 */
 1545               	.L__stack_usage = 6
 1546 000c EC01      		movw r28,r24
 1547 000e 8B01      		movw r16,r22
 1548 0010 7A01      		movw r14,r20
 1549               	.LVL142:
   8:../../LUFA/Drivers/USB/LowLevel/Template/Template_Endpoint_RW.c **** 	  return ErrorCode;
 1550               		.loc 3 8 0
 1551 0012 0E94 0000 		call Endpoint_WaitUntilReady
 1552               	.LVL143:
 1553 0016 8111      		cpse r24,__zero_reg__
 1554 0018 00C0      		rjmp .L154
   5:../../LUFA/Drivers/USB/LowLevel/Template/Template_Endpoint_RW.c **** 	uint8_t  ErrorCode;
 1555               		.loc 3 5 0
 1556 001a 9801      		movw r18,r16
 1557 001c 2150      		subi r18,1
 1558 001e 3109      		sbc r19,__zero_reg__
 1559               	.LVL144:
 1560 0020 C20F      		add r28,r18
 1561 0022 D31F      		adc r29,r19
 1562               	.LVL145:
 1563               	.L155:
  51:../../LUFA/Drivers/USB/LowLevel/Template/Template_Endpoint_RW.c **** 	{
 1564               		.loc 3 51 0
 1565 0024 0115      		cp r16,__zero_reg__
 1566 0026 1105      		cpc r17,__zero_reg__
 1567 0028 01F0      		breq .L164
 1568               	.LBB346:
 1569               	.LBB347:
 358:../../LUFA/Drivers/USB/LowLevel/Endpoint.h **** 			}
 1570               		.loc 2 358 0
 1571 002a 8091 E800 		lds r24,232
 1572               	.LBE347:
 1573               	.LBE346:
  53:../../LUFA/Drivers/USB/LowLevel/Template/Template_Endpoint_RW.c **** 		{
 1574               		.loc 3 53 0
 1575 002e 85FD      		sbrc r24,5
 1576 0030 00C0      		rjmp .L156
 1577               	.LBB348:
 1578               	.LBB349:
 469:../../LUFA/Drivers/USB/LowLevel/Endpoint.h **** 				#else
 1579               		.loc 2 469 0
 1580 0032 8091 E800 		lds r24,232
 1581 0036 8B77      		andi r24,lo8(123)
 1582 0038 8093 E800 		sts 232,r24
 1583               	.LBE349:
 1584               	.LBE348:
  58:../../LUFA/Drivers/USB/LowLevel/Template/Template_Endpoint_RW.c **** 			  return ENDPOINT_RWSTREAM_CallbackAborted;
 1585               		.loc 3 58 0
 1586 003c E114      		cp r14,__zero_reg__
 1587 003e F104      		cpc r15,__zero_reg__
 1588 0040 01F4      		brne .L157
 1589               	.L159:
  62:../../LUFA/Drivers/USB/LowLevel/Template/Template_Endpoint_RW.c **** 			  return ErrorCode;
 1590               		.loc 3 62 0
 1591 0042 0E94 0000 		call Endpoint_WaitUntilReady
 1592               	.LVL146:
 1593 0046 8823      		tst r24
 1594 0048 01F0      		breq .L155
 1595 004a 00C0      		rjmp .L154
 1596               	.LVL147:
 1597               	.L157:
  58:../../LUFA/Drivers/USB/LowLevel/Template/Template_Endpoint_RW.c **** 			  return ENDPOINT_RWSTREAM_CallbackAborted;
 1598               		.loc 3 58 0 discriminator 1
 1599 004c F701      		movw r30,r14
 1600 004e 0995      		icall
 1601               	.LVL148:
 1602 0050 8130      		cpi r24,lo8(1)
 1603 0052 01F4      		brne .L159
  59:../../LUFA/Drivers/USB/LowLevel/Template/Template_Endpoint_RW.c **** 			#endif
 1604               		.loc 3 59 0
 1605 0054 85E0      		ldi r24,lo8(5)
 1606 0056 00C0      		rjmp .L154
 1607               	.L156:
 1608               	.LVL149:
 1609               	.LBB350:
 1610               	.LBB351:
 550:../../LUFA/Drivers/USB/LowLevel/Endpoint.h **** 			}
 1611               		.loc 2 550 0
 1612 0058 8091 F100 		lds r24,241
 1613               	.LBE351:
 1614               	.LBE350:
  67:../../LUFA/Drivers/USB/LowLevel/Template/Template_Endpoint_RW.c **** 			Length--;
 1615               		.loc 3 67 0
 1616 005c 8883      		st Y,r24
  68:../../LUFA/Drivers/USB/LowLevel/Template/Template_Endpoint_RW.c **** 		}
 1617               		.loc 3 68 0
 1618 005e 0150      		subi r16,1
 1619 0060 1109      		sbc r17,__zero_reg__
 1620               	.LVL150:
  67:../../LUFA/Drivers/USB/LowLevel/Template/Template_Endpoint_RW.c **** 			Length--;
 1621               		.loc 3 67 0
 1622 0062 2197      		sbiw r28,1
 1623               	.LVL151:
 1624 0064 00C0      		rjmp .L155
 1625               	.L164:
  72:../../LUFA/Drivers/USB/LowLevel/Template/Template_Endpoint_RW.c **** }
 1626               		.loc 3 72 0
 1627 0066 80E0      		ldi r24,0
 1628               	.LVL152:
 1629               	.L154:
 1630               	/* epilogue start */
 1631               		.loc 3 73 0
 1632 0068 DF91      		pop r29
 1633 006a CF91      		pop r28
 1634 006c 1F91      		pop r17
 1635 006e 0F91      		pop r16
 1636               	.LVL153:
 1637 0070 FF90      		pop r15
 1638 0072 EF90      		pop r14
 1639               	.LVL154:
 1640 0074 0895      		ret
 1641               		.cfi_endproc
 1642               	.LFE78:
 1644               		.section	.text.Endpoint_Read_EStream_BE,"ax",@progbits
 1645               	.global	Endpoint_Read_EStream_BE
 1647               	Endpoint_Read_EStream_BE:
 1648               	.LFB79:
   4:../../LUFA/Drivers/USB/LowLevel/Template/Template_Endpoint_RW.c **** 	uint8_t* DataStream = ((uint8_t*)Buffer + TEMPLATE_BUFFER_OFFSET(Length));
 1649               		.loc 3 4 0
 1650               		.cfi_startproc
 1651               	.LVL155:
 1652 0000 CF92      		push r12
 1653               	.LCFI64:
 1654               		.cfi_def_cfa_offset 3
 1655               		.cfi_offset 12, -2
 1656 0002 DF92      		push r13
 1657               	.LCFI65:
 1658               		.cfi_def_cfa_offset 4
 1659               		.cfi_offset 13, -3
 1660 0004 EF92      		push r14
 1661               	.LCFI66:
 1662               		.cfi_def_cfa_offset 5
 1663               		.cfi_offset 14, -4
 1664 0006 FF92      		push r15
 1665               	.LCFI67:
 1666               		.cfi_def_cfa_offset 6
 1667               		.cfi_offset 15, -5
 1668 0008 0F93      		push r16
 1669               	.LCFI68:
 1670               		.cfi_def_cfa_offset 7
 1671               		.cfi_offset 16, -6
 1672 000a 1F93      		push r17
 1673               	.LCFI69:
 1674               		.cfi_def_cfa_offset 8
 1675               		.cfi_offset 17, -7
 1676 000c CF93      		push r28
 1677               	.LCFI70:
 1678               		.cfi_def_cfa_offset 9
 1679               		.cfi_offset 28, -8
 1680 000e DF93      		push r29
 1681               	.LCFI71:
 1682               		.cfi_def_cfa_offset 10
 1683               		.cfi_offset 29, -9
 1684               	/* prologue: function */
 1685               	/* frame size = 0 */
 1686               	/* stack size = 8 */
 1687               	.L__stack_usage = 8
 1688 0010 EC01      		movw r28,r24
 1689 0012 8B01      		movw r16,r22
 1690 0014 7A01      		movw r14,r20
 1691               	.LVL156:
   8:../../LUFA/Drivers/USB/LowLevel/Template/Template_Endpoint_RW.c **** 	  return ErrorCode;
 1692               		.loc 3 8 0
 1693 0016 0E94 0000 		call Endpoint_WaitUntilReady
 1694               	.LVL157:
 1695 001a 8111      		cpse r24,__zero_reg__
 1696 001c 00C0      		rjmp .L166
   5:../../LUFA/Drivers/USB/LowLevel/Template/Template_Endpoint_RW.c **** 	uint8_t  ErrorCode;
 1697               		.loc 3 5 0
 1698 001e 9801      		movw r18,r16
 1699 0020 2150      		subi r18,1
 1700 0022 3109      		sbc r19,__zero_reg__
 1701               	.LVL158:
 1702 0024 C20F      		add r28,r18
 1703 0026 D31F      		adc r29,r19
 1704               	.LVL159:
 1705               	.L167:
  51:../../LUFA/Drivers/USB/LowLevel/Template/Template_Endpoint_RW.c **** 	{
 1706               		.loc 3 51 0
 1707 0028 0115      		cp r16,__zero_reg__
 1708 002a 1105      		cpc r17,__zero_reg__
 1709 002c 01F0      		breq .L176
 1710               	.LBB352:
 1711               	.LBB353:
 358:../../LUFA/Drivers/USB/LowLevel/Endpoint.h **** 			}
 1712               		.loc 2 358 0
 1713 002e 8091 E800 		lds r24,232
 1714               	.LBE353:
 1715               	.LBE352:
  53:../../LUFA/Drivers/USB/LowLevel/Template/Template_Endpoint_RW.c **** 		{
 1716               		.loc 3 53 0
 1717 0032 85FD      		sbrc r24,5
 1718 0034 00C0      		rjmp .L168
 1719               	.LBB354:
 1720               	.LBB355:
 469:../../LUFA/Drivers/USB/LowLevel/Endpoint.h **** 				#else
 1721               		.loc 2 469 0
 1722 0036 8091 E800 		lds r24,232
 1723 003a 8B77      		andi r24,lo8(123)
 1724 003c 8093 E800 		sts 232,r24
 1725               	.LBE355:
 1726               	.LBE354:
  58:../../LUFA/Drivers/USB/LowLevel/Template/Template_Endpoint_RW.c **** 			  return ENDPOINT_RWSTREAM_CallbackAborted;
 1727               		.loc 3 58 0
 1728 0040 E114      		cp r14,__zero_reg__
 1729 0042 F104      		cpc r15,__zero_reg__
 1730 0044 01F4      		brne .L169
 1731               	.L171:
  62:../../LUFA/Drivers/USB/LowLevel/Template/Template_Endpoint_RW.c **** 			  return ErrorCode;
 1732               		.loc 3 62 0
 1733 0046 0E94 0000 		call Endpoint_WaitUntilReady
 1734               	.LVL160:
 1735 004a 8823      		tst r24
 1736 004c 01F0      		breq .L167
 1737 004e 00C0      		rjmp .L166
 1738               	.LVL161:
 1739               	.L169:
  58:../../LUFA/Drivers/USB/LowLevel/Template/Template_Endpoint_RW.c **** 			  return ENDPOINT_RWSTREAM_CallbackAborted;
 1740               		.loc 3 58 0 discriminator 1
 1741 0050 F701      		movw r30,r14
 1742 0052 0995      		icall
 1743               	.LVL162:
 1744 0054 8130      		cpi r24,lo8(1)
 1745 0056 01F4      		brne .L171
  59:../../LUFA/Drivers/USB/LowLevel/Template/Template_Endpoint_RW.c **** 			#endif
 1746               		.loc 3 59 0
 1747 0058 85E0      		ldi r24,lo8(5)
 1748 005a 00C0      		rjmp .L166
 1749               	.L168:
 1750               	.LBB356:
 1751               	.LBB357:
 550:../../LUFA/Drivers/USB/LowLevel/Endpoint.h **** 			}
 1752               		.loc 2 550 0
 1753 005c 6091 F100 		lds r22,241
 1754               	.LBE357:
 1755               	.LBE356:
  67:../../LUFA/Drivers/USB/LowLevel/Template/Template_Endpoint_RW.c **** 			Length--;
 1756               		.loc 3 67 0
 1757 0060 6E01      		movw r12,r28
 1758 0062 F1E0      		ldi r31,1
 1759 0064 CF1A      		sub r12,r31
 1760 0066 D108      		sbc r13,__zero_reg__
 1761               	.LVL163:
 1762 0068 CE01      		movw r24,r28
 1763 006a 0E94 0000 		call eeprom_update_byte
 1764               	.LVL164:
  68:../../LUFA/Drivers/USB/LowLevel/Template/Template_Endpoint_RW.c **** 		}
 1765               		.loc 3 68 0
 1766 006e 0150      		subi r16,1
 1767 0070 1109      		sbc r17,__zero_reg__
 1768               	.LVL165:
  67:../../LUFA/Drivers/USB/LowLevel/Template/Template_Endpoint_RW.c **** 			Length--;
 1769               		.loc 3 67 0
 1770 0072 E601      		movw r28,r12
 1771 0074 00C0      		rjmp .L167
 1772               	.LVL166:
 1773               	.L176:
  72:../../LUFA/Drivers/USB/LowLevel/Template/Template_Endpoint_RW.c **** }
 1774               		.loc 3 72 0
 1775 0076 80E0      		ldi r24,0
 1776               	.LVL167:
 1777               	.L166:
 1778               	/* epilogue start */
 1779               		.loc 3 73 0
 1780 0078 DF91      		pop r29
 1781 007a CF91      		pop r28
 1782 007c 1F91      		pop r17
 1783 007e 0F91      		pop r16
 1784               	.LVL168:
 1785 0080 FF90      		pop r15
 1786 0082 EF90      		pop r14
 1787               	.LVL169:
 1788 0084 DF90      		pop r13
 1789 0086 CF90      		pop r12
 1790 0088 0895      		ret
 1791               		.cfi_endproc
 1792               	.LFE79:
 1794               		.section	.text.Endpoint_Write_Control_Stream_LE,"ax",@progbits
 1795               	.global	Endpoint_Write_Control_Stream_LE
 1797               	Endpoint_Write_Control_Stream_LE:
 1798               	.LFB80:
 1799               		.file 4 "../../LUFA/Drivers/USB/LowLevel/Template/Template_Endpoint_Control_W.c"
   1:../../LUFA/Drivers/USB/LowLevel/Template/Template_Endpoint_Control_W.c **** uint8_t TEMPLATE_FUNC_NAME (const void* Buffer,
   2:../../LUFA/Drivers/USB/LowLevel/Template/Template_Endpoint_Control_W.c ****                             uint16_t Length)
   3:../../LUFA/Drivers/USB/LowLevel/Template/Template_Endpoint_Control_W.c **** {
 1800               		.loc 4 3 0
 1801               		.cfi_startproc
 1802               	.LVL170:
 1803               	/* prologue: function */
 1804               	/* frame size = 0 */
 1805               	/* stack size = 0 */
 1806               	.L__stack_usage = 0
   4:../../LUFA/Drivers/USB/LowLevel/Template/Template_Endpoint_Control_W.c **** 	uint8_t* DataStream     = ((uint8_t*)Buffer + TEMPLATE_BUFFER_OFFSET(Length));
   5:../../LUFA/Drivers/USB/LowLevel/Template/Template_Endpoint_Control_W.c **** 	bool     LastPacketFull = false;
   6:../../LUFA/Drivers/USB/LowLevel/Template/Template_Endpoint_Control_W.c **** 	
   7:../../LUFA/Drivers/USB/LowLevel/Template/Template_Endpoint_Control_W.c **** 	if (Length > USB_ControlRequest.wLength)
 1807               		.loc 4 7 0
 1808 0000 2091 0000 		lds r18,USB_ControlRequest+6
 1809 0004 3091 0000 		lds r19,USB_ControlRequest+6+1
 1810 0008 2617      		cp r18,r22
 1811 000a 3707      		cpc r19,r23
 1812 000c 00F0      		brlo .L189
   8:../../LUFA/Drivers/USB/LowLevel/Template/Template_Endpoint_Control_W.c **** 	  Length = USB_ControlRequest.wLength;
   9:../../LUFA/Drivers/USB/LowLevel/Template/Template_Endpoint_Control_W.c **** 	else if (!(Length))
 1813               		.loc 4 9 0
 1814 000e 6115      		cp r22,__zero_reg__
 1815 0010 7105      		cpc r23,__zero_reg__
 1816 0012 01F4      		brne .L178
 1817               	.LBB358:
 1818               	.LBB359:
 454:../../LUFA/Drivers/USB/LowLevel/Endpoint.h **** 				#else
 1819               		.loc 2 454 0
 1820 0014 2091 E800 		lds r18,232
 1821 0018 2E77      		andi r18,lo8(126)
 1822 001a 2093 E800 		sts 232,r18
 1823 001e 00C0      		rjmp .L178
 1824               	.L189:
 1825               	.LBE359:
 1826               	.LBE358:
 1827 0020 B901      		movw r22,r18
 1828               	.LVL171:
 1829               	.L178:
 1830 0022 30E0      		ldi r19,0
 1831               	.LVL172:
 1832               	.L182:
  10:../../LUFA/Drivers/USB/LowLevel/Template/Template_Endpoint_Control_W.c **** 	  Endpoint_ClearIN();
  11:../../LUFA/Drivers/USB/LowLevel/Template/Template_Endpoint_Control_W.c **** 
  12:../../LUFA/Drivers/USB/LowLevel/Template/Template_Endpoint_Control_W.c **** 	while (Length || LastPacketFull)
 1833               		.loc 4 12 0
 1834 0024 6115      		cp r22,__zero_reg__
 1835 0026 7105      		cpc r23,__zero_reg__
 1836 0028 01F0      		breq .L204
 1837               	.L187:
 1838               	.LBB360:
 1839               	.LBB361:
 429:../../LUFA/Drivers/USB/LowLevel/Endpoint.h **** 			}
 1840               		.loc 2 429 0
 1841 002a 2091 E800 		lds r18,232
 1842               	.LBE361:
 1843               	.LBE360:
  13:../../LUFA/Drivers/USB/LowLevel/Template/Template_Endpoint_Control_W.c **** 	{
  14:../../LUFA/Drivers/USB/LowLevel/Template/Template_Endpoint_Control_W.c **** 		if (Endpoint_IsSETUPReceived())
 1844               		.loc 4 14 0
 1845 002e 23FD      		sbrc r18,3
 1846 0030 00C0      		rjmp .L190
 1847               	.LBB362:
 1848               	.LBB363:
 417:../../LUFA/Drivers/USB/LowLevel/Endpoint.h **** 			}
 1849               		.loc 2 417 0
 1850 0032 2091 E800 		lds r18,232
 1851               	.LBE363:
 1852               	.LBE362:
  15:../../LUFA/Drivers/USB/LowLevel/Template/Template_Endpoint_Control_W.c **** 		  return ENDPOINT_RWCSTREAM_HostAborted;
  16:../../LUFA/Drivers/USB/LowLevel/Template/Template_Endpoint_Control_W.c **** 
  17:../../LUFA/Drivers/USB/LowLevel/Template/Template_Endpoint_Control_W.c **** 		if (Endpoint_IsOUTReceived())
 1853               		.loc 4 17 0
 1854 0036 22FD      		sbrc r18,2
 1855 0038 00C0      		rjmp .L200
  18:../../LUFA/Drivers/USB/LowLevel/Template/Template_Endpoint_Control_W.c **** 		  break;
  19:../../LUFA/Drivers/USB/LowLevel/Template/Template_Endpoint_Control_W.c **** 		
  20:../../LUFA/Drivers/USB/LowLevel/Template/Template_Endpoint_Control_W.c **** 		if (USB_DeviceState == DEVICE_STATE_Unattached)
 1856               		.loc 4 20 0
 1857 003a 2EB3      		in r18,0x1e
 1858 003c 2223      		tst r18
 1859 003e 01F0      		breq .L193
  21:../../LUFA/Drivers/USB/LowLevel/Template/Template_Endpoint_Control_W.c **** 		  return ENDPOINT_RWCSTREAM_DeviceDisconnected;
  22:../../LUFA/Drivers/USB/LowLevel/Template/Template_Endpoint_Control_W.c **** 		else if (USB_DeviceState == DEVICE_STATE_Suspended)
 1860               		.loc 4 22 0
 1861 0040 2EB3      		in r18,0x1e
 1862 0042 2530      		cpi r18,lo8(5)
 1863 0044 01F0      		breq .L194
 1864               	.LBB364:
 1865               	.LBB365:
 405:../../LUFA/Drivers/USB/LowLevel/Endpoint.h **** 			}
 1866               		.loc 2 405 0
 1867 0046 2091 E800 		lds r18,232
 1868               	.LBE365:
 1869               	.LBE364:
  23:../../LUFA/Drivers/USB/LowLevel/Template/Template_Endpoint_Control_W.c **** 		  return ENDPOINT_RWCSTREAM_BusSuspended;
  24:../../LUFA/Drivers/USB/LowLevel/Template/Template_Endpoint_Control_W.c **** 		  
  25:../../LUFA/Drivers/USB/LowLevel/Template/Template_Endpoint_Control_W.c **** 		if (Endpoint_IsINReady())
 1870               		.loc 4 25 0
 1871 004a 20FF      		sbrs r18,0
 1872 004c 00C0      		rjmp .L182
 1873               	.LBB366:
 1874               	.LBB367:
 1875               	.LBB368:
 266:../../LUFA/Drivers/USB/LowLevel/Endpoint.h **** 				#endif
 1876               		.loc 2 266 0
 1877 004e 2091 F200 		lds r18,242
 1878               	.LVL173:
 1879 0052 FC01      		movw r30,r24
 1880               	.LVL174:
 1881               	.L183:
 1882 0054 CF01      		movw r24,r30
 1883               	.LVL175:
 1884               	.LBE368:
 1885               	.LBE367:
  26:../../LUFA/Drivers/USB/LowLevel/Template/Template_Endpoint_Control_W.c **** 		{
  27:../../LUFA/Drivers/USB/LowLevel/Template/Template_Endpoint_Control_W.c **** 			uint8_t BytesInEndpoint = Endpoint_BytesInEndpoint();
  28:../../LUFA/Drivers/USB/LowLevel/Template/Template_Endpoint_Control_W.c **** 		
  29:../../LUFA/Drivers/USB/LowLevel/Template/Template_Endpoint_Control_W.c **** 			while (Length && (BytesInEndpoint < USB_ControlEndpointSize))
 1886               		.loc 4 29 0
 1887 0056 6115      		cp r22,__zero_reg__
 1888 0058 7105      		cpc r23,__zero_reg__
 1889 005a 01F0      		breq .L184
 1890               		.loc 4 29 0 is_stmt 0 discriminator 1
 1891 005c 2830      		cpi r18,lo8(8)
 1892 005e 00F4      		brsh .L184
 1893               	.LVL176:
  30:../../LUFA/Drivers/USB/LowLevel/Template/Template_Endpoint_Control_W.c **** 			{
  31:../../LUFA/Drivers/USB/LowLevel/Template/Template_Endpoint_Control_W.c **** 				TEMPLATE_TRANSFER_BYTE(DataStream);
 1894               		.loc 4 31 0 is_stmt 1
 1895 0060 8191      		ld r24,Z+
 1896               	.LVL177:
 1897               	.LBB369:
 1898               	.LBB370:
 562:../../LUFA/Drivers/USB/LowLevel/Endpoint.h **** 			}
 1899               		.loc 2 562 0
 1900 0062 8093 F100 		sts 241,r24
 1901               	.LBE370:
 1902               	.LBE369:
  32:../../LUFA/Drivers/USB/LowLevel/Template/Template_Endpoint_Control_W.c **** 				Length--;
 1903               		.loc 4 32 0
 1904 0066 6150      		subi r22,1
 1905 0068 7109      		sbc r23,__zero_reg__
 1906               	.LVL178:
  33:../../LUFA/Drivers/USB/LowLevel/Template/Template_Endpoint_Control_W.c **** 				BytesInEndpoint++;
 1907               		.loc 4 33 0
 1908 006a 2F5F      		subi r18,lo8(-(1))
 1909               	.LVL179:
 1910 006c 00C0      		rjmp .L183
 1911               	.LVL180:
 1912               	.L184:
  34:../../LUFA/Drivers/USB/LowLevel/Template/Template_Endpoint_Control_W.c **** 			}
  35:../../LUFA/Drivers/USB/LowLevel/Template/Template_Endpoint_Control_W.c **** 			
  36:../../LUFA/Drivers/USB/LowLevel/Template/Template_Endpoint_Control_W.c **** 			LastPacketFull = (BytesInEndpoint == USB_ControlEndpointSize);
 1913               		.loc 4 36 0
 1914 006e 31E0      		ldi r19,lo8(1)
 1915               	.LVL181:
 1916 0070 2830      		cpi r18,lo8(8)
 1917 0072 01F0      		breq .L186
 1918 0074 30E0      		ldi r19,0
 1919               	.L186:
 1920               	.LVL182:
 1921               	.LBB371:
 1922               	.LBB372:
 454:../../LUFA/Drivers/USB/LowLevel/Endpoint.h **** 				#else
 1923               		.loc 2 454 0
 1924 0076 2091 E800 		lds r18,232
 1925               	.LVL183:
 1926 007a 2E77      		andi r18,lo8(126)
 1927 007c 2093 E800 		sts 232,r18
 1928 0080 00C0      		rjmp .L182
 1929               	.LVL184:
 1930               	.L204:
 1931               	.LBE372:
 1932               	.LBE371:
 1933               	.LBE366:
  12:../../LUFA/Drivers/USB/LowLevel/Template/Template_Endpoint_Control_W.c **** 	{
 1934               		.loc 4 12 0 discriminator 1
 1935 0082 3111      		cpse r19,__zero_reg__
 1936 0084 00C0      		rjmp .L187
 1937 0086 00C0      		rjmp .L200
 1938               	.LVL185:
 1939               	.L188:
  37:../../LUFA/Drivers/USB/LowLevel/Template/Template_Endpoint_Control_W.c **** 			Endpoint_ClearIN();
  38:../../LUFA/Drivers/USB/LowLevel/Template/Template_Endpoint_Control_W.c **** 		}
  39:../../LUFA/Drivers/USB/LowLevel/Template/Template_Endpoint_Control_W.c **** 	}
  40:../../LUFA/Drivers/USB/LowLevel/Template/Template_Endpoint_Control_W.c **** 	
  41:../../LUFA/Drivers/USB/LowLevel/Template/Template_Endpoint_Control_W.c **** 	while (!(Endpoint_IsOUTReceived()))
  42:../../LUFA/Drivers/USB/LowLevel/Template/Template_Endpoint_Control_W.c **** 	{
  43:../../LUFA/Drivers/USB/LowLevel/Template/Template_Endpoint_Control_W.c **** 		if (USB_DeviceState == DEVICE_STATE_Unattached)
 1940               		.loc 4 43 0
 1941 0088 8EB3      		in r24,0x1e
 1942 008a 8823      		tst r24
 1943 008c 01F0      		breq .L193
  44:../../LUFA/Drivers/USB/LowLevel/Template/Template_Endpoint_Control_W.c **** 		  return ENDPOINT_RWCSTREAM_DeviceDisconnected;
  45:../../LUFA/Drivers/USB/LowLevel/Template/Template_Endpoint_Control_W.c **** 		else if (USB_DeviceState == DEVICE_STATE_Suspended)
 1944               		.loc 4 45 0
 1945 008e 8EB3      		in r24,0x1e
 1946 0090 8530      		cpi r24,lo8(5)
 1947 0092 01F0      		breq .L194
 1948               	.L200:
 1949               	.LBB373:
 1950               	.LBB374:
 417:../../LUFA/Drivers/USB/LowLevel/Endpoint.h **** 			}
 1951               		.loc 2 417 0
 1952 0094 8091 E800 		lds r24,232
 1953               	.LBE374:
 1954               	.LBE373:
  41:../../LUFA/Drivers/USB/LowLevel/Template/Template_Endpoint_Control_W.c **** 	{
 1955               		.loc 4 41 0
 1956 0098 82FF      		sbrs r24,2
 1957 009a 00C0      		rjmp .L188
  46:../../LUFA/Drivers/USB/LowLevel/Template/Template_Endpoint_Control_W.c **** 		  return ENDPOINT_RWCSTREAM_BusSuspended;
  47:../../LUFA/Drivers/USB/LowLevel/Template/Template_Endpoint_Control_W.c **** 	}
  48:../../LUFA/Drivers/USB/LowLevel/Template/Template_Endpoint_Control_W.c **** 
  49:../../LUFA/Drivers/USB/LowLevel/Template/Template_Endpoint_Control_W.c **** 	return ENDPOINT_RWCSTREAM_NoError;
 1958               		.loc 4 49 0
 1959 009c 80E0      		ldi r24,0
 1960 009e 0895      		ret
 1961               	.LVL186:
 1962               	.L190:
  15:../../LUFA/Drivers/USB/LowLevel/Template/Template_Endpoint_Control_W.c **** 
 1963               		.loc 4 15 0
 1964 00a0 81E0      		ldi r24,lo8(1)
 1965               	.LVL187:
 1966 00a2 0895      		ret
 1967               	.L193:
  21:../../LUFA/Drivers/USB/LowLevel/Template/Template_Endpoint_Control_W.c **** 		else if (USB_DeviceState == DEVICE_STATE_Suspended)
 1968               		.loc 4 21 0
 1969 00a4 82E0      		ldi r24,lo8(2)
 1970 00a6 0895      		ret
 1971               	.L194:
  23:../../LUFA/Drivers/USB/LowLevel/Template/Template_Endpoint_Control_W.c **** 		  
 1972               		.loc 4 23 0
 1973 00a8 83E0      		ldi r24,lo8(3)
  50:../../LUFA/Drivers/USB/LowLevel/Template/Template_Endpoint_Control_W.c **** }
 1974               		.loc 4 50 0
 1975 00aa 0895      		ret
 1976               		.cfi_endproc
 1977               	.LFE80:
 1979               		.section	.text.Endpoint_Write_Control_PStream_LE,"ax",@progbits
 1980               	.global	Endpoint_Write_Control_PStream_LE
 1982               	Endpoint_Write_Control_PStream_LE:
 1983               	.LFB81:
   3:../../LUFA/Drivers/USB/LowLevel/Template/Template_Endpoint_Control_W.c **** 	uint8_t* DataStream     = ((uint8_t*)Buffer + TEMPLATE_BUFFER_OFFSET(Length));
 1984               		.loc 4 3 0
 1985               		.cfi_startproc
 1986               	.LVL188:
 1987               	/* prologue: function */
 1988               	/* frame size = 0 */
 1989               	/* stack size = 0 */
 1990               	.L__stack_usage = 0
   7:../../LUFA/Drivers/USB/LowLevel/Template/Template_Endpoint_Control_W.c **** 	  Length = USB_ControlRequest.wLength;
 1991               		.loc 4 7 0
 1992 0000 2091 0000 		lds r18,USB_ControlRequest+6
 1993 0004 3091 0000 		lds r19,USB_ControlRequest+6+1
 1994 0008 2617      		cp r18,r22
 1995 000a 3707      		cpc r19,r23
 1996 000c 00F0      		brlo .L217
   9:../../LUFA/Drivers/USB/LowLevel/Template/Template_Endpoint_Control_W.c **** 	  Endpoint_ClearIN();
 1997               		.loc 4 9 0
 1998 000e 6115      		cp r22,__zero_reg__
 1999 0010 7105      		cpc r23,__zero_reg__
 2000 0012 01F4      		brne .L206
 2001               	.LBB375:
 2002               	.LBB376:
 454:../../LUFA/Drivers/USB/LowLevel/Endpoint.h **** 				#else
 2003               		.loc 2 454 0
 2004 0014 2091 E800 		lds r18,232
 2005 0018 2E77      		andi r18,lo8(126)
 2006 001a 2093 E800 		sts 232,r18
 2007 001e 00C0      		rjmp .L206
 2008               	.L217:
 2009               	.LBE376:
 2010               	.LBE375:
 2011 0020 B901      		movw r22,r18
 2012               	.LVL189:
 2013               	.L206:
 2014               	.LBB377:
  29:../../LUFA/Drivers/USB/LowLevel/Template/Template_Endpoint_Control_W.c **** 			{
 2015               		.loc 4 29 0
 2016 0022 30E0      		ldi r19,0
 2017               	.LVL190:
 2018               	.L210:
 2019               	.LBE377:
  12:../../LUFA/Drivers/USB/LowLevel/Template/Template_Endpoint_Control_W.c **** 	{
 2020               		.loc 4 12 0
 2021 0024 6115      		cp r22,__zero_reg__
 2022 0026 7105      		cpc r23,__zero_reg__
 2023 0028 01F0      		breq .L232
 2024               	.L215:
 2025               	.LBB385:
 2026               	.LBB386:
 429:../../LUFA/Drivers/USB/LowLevel/Endpoint.h **** 			}
 2027               		.loc 2 429 0
 2028 002a 2091 E800 		lds r18,232
 2029               	.LBE386:
 2030               	.LBE385:
  14:../../LUFA/Drivers/USB/LowLevel/Template/Template_Endpoint_Control_W.c **** 		  return ENDPOINT_RWCSTREAM_HostAborted;
 2031               		.loc 4 14 0
 2032 002e 23FD      		sbrc r18,3
 2033 0030 00C0      		rjmp .L218
 2034               	.LBB387:
 2035               	.LBB388:
 417:../../LUFA/Drivers/USB/LowLevel/Endpoint.h **** 			}
 2036               		.loc 2 417 0
 2037 0032 2091 E800 		lds r18,232
 2038               	.LBE388:
 2039               	.LBE387:
  17:../../LUFA/Drivers/USB/LowLevel/Template/Template_Endpoint_Control_W.c **** 		  break;
 2040               		.loc 4 17 0
 2041 0036 22FD      		sbrc r18,2
 2042 0038 00C0      		rjmp .L228
  20:../../LUFA/Drivers/USB/LowLevel/Template/Template_Endpoint_Control_W.c **** 		  return ENDPOINT_RWCSTREAM_DeviceDisconnected;
 2043               		.loc 4 20 0
 2044 003a 2EB3      		in r18,0x1e
 2045 003c 2223      		tst r18
 2046 003e 01F0      		breq .L221
  22:../../LUFA/Drivers/USB/LowLevel/Template/Template_Endpoint_Control_W.c **** 		  return ENDPOINT_RWCSTREAM_BusSuspended;
 2047               		.loc 4 22 0
 2048 0040 2EB3      		in r18,0x1e
 2049 0042 2530      		cpi r18,lo8(5)
 2050 0044 01F0      		breq .L222
 2051               	.LBB389:
 2052               	.LBB390:
 405:../../LUFA/Drivers/USB/LowLevel/Endpoint.h **** 			}
 2053               		.loc 2 405 0
 2054 0046 2091 E800 		lds r18,232
 2055               	.LBE390:
 2056               	.LBE389:
  25:../../LUFA/Drivers/USB/LowLevel/Template/Template_Endpoint_Control_W.c **** 		{
 2057               		.loc 4 25 0
 2058 004a 20FF      		sbrs r18,0
 2059 004c 00C0      		rjmp .L210
 2060               	.LBB391:
 2061               	.LBB378:
 2062               	.LBB379:
 266:../../LUFA/Drivers/USB/LowLevel/Endpoint.h **** 				#endif
 2063               		.loc 2 266 0
 2064 004e 2091 F200 		lds r18,242
 2065               	.LVL191:
 2066               	.LBE379:
 2067               	.LBE378:
  29:../../LUFA/Drivers/USB/LowLevel/Template/Template_Endpoint_Control_W.c **** 			{
 2068               		.loc 4 29 0
 2069 0052 FC01      		movw r30,r24
 2070               	.LVL192:
 2071               	.L211:
 2072 0054 CF01      		movw r24,r30
 2073               	.LVL193:
 2074 0056 6115      		cp r22,__zero_reg__
 2075 0058 7105      		cpc r23,__zero_reg__
 2076 005a 01F0      		breq .L212
  29:../../LUFA/Drivers/USB/LowLevel/Template/Template_Endpoint_Control_W.c **** 			{
 2077               		.loc 4 29 0 is_stmt 0 discriminator 1
 2078 005c 2830      		cpi r18,lo8(8)
 2079 005e 00F4      		brsh .L212
 2080               	.LVL194:
 2081               	.LBB380:
  31:../../LUFA/Drivers/USB/LowLevel/Template/Template_Endpoint_Control_W.c **** 				Length--;
 2082               		.loc 4 31 0 is_stmt 1
 2083               	/* #APP */
 2084               	 ;  31 "../../LUFA/Drivers/USB/LowLevel/Template/Template_Endpoint_Control_W.c" 1
 2085 0060 8491      		lpm r24, Z
 2086               		
 2087               	 ;  0 "" 2
 2088               	.LVL195:
 2089               	/* #NOAPP */
 2090               	.LBE380:
 2091               	.LBB381:
 2092               	.LBB382:
 562:../../LUFA/Drivers/USB/LowLevel/Endpoint.h **** 			}
 2093               		.loc 2 562 0
 2094 0062 8093 F100 		sts 241,r24
 2095               	.LBE382:
 2096               	.LBE381:
  32:../../LUFA/Drivers/USB/LowLevel/Template/Template_Endpoint_Control_W.c **** 				BytesInEndpoint++;
 2097               		.loc 4 32 0
 2098 0066 6150      		subi r22,1
 2099 0068 7109      		sbc r23,__zero_reg__
 2100               	.LVL196:
  33:../../LUFA/Drivers/USB/LowLevel/Template/Template_Endpoint_Control_W.c **** 			}
 2101               		.loc 4 33 0
 2102 006a 2F5F      		subi r18,lo8(-(1))
 2103               	.LVL197:
 2104 006c 3196      		adiw r30,1
 2105               	.LVL198:
 2106 006e 00C0      		rjmp .L211
 2107               	.LVL199:
 2108               	.L212:
  36:../../LUFA/Drivers/USB/LowLevel/Template/Template_Endpoint_Control_W.c **** 			Endpoint_ClearIN();
 2109               		.loc 4 36 0
 2110 0070 31E0      		ldi r19,lo8(1)
 2111               	.LVL200:
 2112 0072 2830      		cpi r18,lo8(8)
 2113 0074 01F0      		breq .L214
 2114 0076 30E0      		ldi r19,0
 2115               	.L214:
 2116               	.LVL201:
 2117               	.LBB383:
 2118               	.LBB384:
 454:../../LUFA/Drivers/USB/LowLevel/Endpoint.h **** 				#else
 2119               		.loc 2 454 0
 2120 0078 2091 E800 		lds r18,232
 2121               	.LVL202:
 2122 007c 2E77      		andi r18,lo8(126)
 2123 007e 2093 E800 		sts 232,r18
 2124 0082 00C0      		rjmp .L210
 2125               	.LVL203:
 2126               	.L232:
 2127               	.LBE384:
 2128               	.LBE383:
 2129               	.LBE391:
  12:../../LUFA/Drivers/USB/LowLevel/Template/Template_Endpoint_Control_W.c **** 	{
 2130               		.loc 4 12 0 discriminator 1
 2131 0084 3111      		cpse r19,__zero_reg__
 2132 0086 00C0      		rjmp .L215
 2133 0088 00C0      		rjmp .L228
 2134               	.LVL204:
 2135               	.L216:
  43:../../LUFA/Drivers/USB/LowLevel/Template/Template_Endpoint_Control_W.c **** 		  return ENDPOINT_RWCSTREAM_DeviceDisconnected;
 2136               		.loc 4 43 0
 2137 008a 8EB3      		in r24,0x1e
 2138 008c 8823      		tst r24
 2139 008e 01F0      		breq .L221
  45:../../LUFA/Drivers/USB/LowLevel/Template/Template_Endpoint_Control_W.c **** 		  return ENDPOINT_RWCSTREAM_BusSuspended;
 2140               		.loc 4 45 0
 2141 0090 8EB3      		in r24,0x1e
 2142 0092 8530      		cpi r24,lo8(5)
 2143 0094 01F0      		breq .L222
 2144               	.L228:
 2145               	.LBB392:
 2146               	.LBB393:
 417:../../LUFA/Drivers/USB/LowLevel/Endpoint.h **** 			}
 2147               		.loc 2 417 0
 2148 0096 8091 E800 		lds r24,232
 2149               	.LBE393:
 2150               	.LBE392:
  41:../../LUFA/Drivers/USB/LowLevel/Template/Template_Endpoint_Control_W.c **** 	{
 2151               		.loc 4 41 0
 2152 009a 82FF      		sbrs r24,2
 2153 009c 00C0      		rjmp .L216
  49:../../LUFA/Drivers/USB/LowLevel/Template/Template_Endpoint_Control_W.c **** }
 2154               		.loc 4 49 0
 2155 009e 80E0      		ldi r24,0
 2156 00a0 0895      		ret
 2157               	.LVL205:
 2158               	.L218:
  15:../../LUFA/Drivers/USB/LowLevel/Template/Template_Endpoint_Control_W.c **** 
 2159               		.loc 4 15 0
 2160 00a2 81E0      		ldi r24,lo8(1)
 2161               	.LVL206:
 2162 00a4 0895      		ret
 2163               	.L221:
  21:../../LUFA/Drivers/USB/LowLevel/Template/Template_Endpoint_Control_W.c **** 		else if (USB_DeviceState == DEVICE_STATE_Suspended)
 2164               		.loc 4 21 0
 2165 00a6 82E0      		ldi r24,lo8(2)
 2166 00a8 0895      		ret
 2167               	.L222:
  23:../../LUFA/Drivers/USB/LowLevel/Template/Template_Endpoint_Control_W.c **** 		  
 2168               		.loc 4 23 0
 2169 00aa 83E0      		ldi r24,lo8(3)
 2170               		.loc 4 50 0
 2171 00ac 0895      		ret
 2172               		.cfi_endproc
 2173               	.LFE81:
 2175               		.section	.text.Endpoint_Write_Control_EStream_LE,"ax",@progbits
 2176               	.global	Endpoint_Write_Control_EStream_LE
 2178               	Endpoint_Write_Control_EStream_LE:
 2179               	.LFB82:
   3:../../LUFA/Drivers/USB/LowLevel/Template/Template_Endpoint_Control_W.c **** 	uint8_t* DataStream     = ((uint8_t*)Buffer + TEMPLATE_BUFFER_OFFSET(Length));
 2180               		.loc 4 3 0
 2181               		.cfi_startproc
 2182               	.LVL207:
 2183 0000 EF92      		push r14
 2184               	.LCFI72:
 2185               		.cfi_def_cfa_offset 3
 2186               		.cfi_offset 14, -2
 2187 0002 FF92      		push r15
 2188               	.LCFI73:
 2189               		.cfi_def_cfa_offset 4
 2190               		.cfi_offset 15, -3
 2191 0004 1F93      		push r17
 2192               	.LCFI74:
 2193               		.cfi_def_cfa_offset 5
 2194               		.cfi_offset 17, -4
 2195 0006 CF93      		push r28
 2196               	.LCFI75:
 2197               		.cfi_def_cfa_offset 6
 2198               		.cfi_offset 28, -5
 2199 0008 DF93      		push r29
 2200               	.LCFI76:
 2201               		.cfi_def_cfa_offset 7
 2202               		.cfi_offset 29, -6
 2203               	/* prologue: function */
 2204               	/* frame size = 0 */
 2205               	/* stack size = 5 */
 2206               	.L__stack_usage = 5
 2207 000a 9C01      		movw r18,r24
 2208 000c EB01      		movw r28,r22
 2209               	.LVL208:
   7:../../LUFA/Drivers/USB/LowLevel/Template/Template_Endpoint_Control_W.c **** 	  Length = USB_ControlRequest.wLength;
 2210               		.loc 4 7 0
 2211 000e 8091 0000 		lds r24,USB_ControlRequest+6
 2212 0012 9091 0000 		lds r25,USB_ControlRequest+6+1
 2213               	.LVL209:
 2214 0016 8617      		cp r24,r22
 2215 0018 9707      		cpc r25,r23
 2216 001a 00F0      		brlo .L245
   9:../../LUFA/Drivers/USB/LowLevel/Template/Template_Endpoint_Control_W.c **** 	  Endpoint_ClearIN();
 2217               		.loc 4 9 0
 2218 001c 2097      		sbiw r28,0
 2219 001e 01F4      		brne .L234
 2220               	.LBB394:
 2221               	.LBB395:
 454:../../LUFA/Drivers/USB/LowLevel/Endpoint.h **** 				#else
 2222               		.loc 2 454 0
 2223 0020 8091 E800 		lds r24,232
 2224 0024 8E77      		andi r24,lo8(126)
 2225 0026 8093 E800 		sts 232,r24
 2226 002a 00C0      		rjmp .L234
 2227               	.L245:
 2228               	.LBE395:
 2229               	.LBE394:
 2230 002c EC01      		movw r28,r24
 2231               	.L234:
 2232               	.LBB396:
  31:../../LUFA/Drivers/USB/LowLevel/Template/Template_Endpoint_Control_W.c **** 				Length--;
 2233               		.loc 4 31 0
 2234 002e 90E0      		ldi r25,0
 2235               	.LVL210:
 2236               	.L238:
 2237               	.LBE396:
  12:../../LUFA/Drivers/USB/LowLevel/Template/Template_Endpoint_Control_W.c **** 	{
 2238               		.loc 4 12 0
 2239 0030 2097      		sbiw r28,0
 2240 0032 01F0      		breq .L260
 2241               	.L243:
 2242               	.LBB403:
 2243               	.LBB404:
 429:../../LUFA/Drivers/USB/LowLevel/Endpoint.h **** 			}
 2244               		.loc 2 429 0
 2245 0034 8091 E800 		lds r24,232
 2246               	.LBE404:
 2247               	.LBE403:
  14:../../LUFA/Drivers/USB/LowLevel/Template/Template_Endpoint_Control_W.c **** 		  return ENDPOINT_RWCSTREAM_HostAborted;
 2248               		.loc 4 14 0
 2249 0038 83FD      		sbrc r24,3
 2250 003a 00C0      		rjmp .L246
 2251               	.LBB405:
 2252               	.LBB406:
 417:../../LUFA/Drivers/USB/LowLevel/Endpoint.h **** 			}
 2253               		.loc 2 417 0
 2254 003c 8091 E800 		lds r24,232
 2255               	.LBE406:
 2256               	.LBE405:
  17:../../LUFA/Drivers/USB/LowLevel/Template/Template_Endpoint_Control_W.c **** 		  break;
 2257               		.loc 4 17 0
 2258 0040 82FD      		sbrc r24,2
 2259 0042 00C0      		rjmp .L256
  20:../../LUFA/Drivers/USB/LowLevel/Template/Template_Endpoint_Control_W.c **** 		  return ENDPOINT_RWCSTREAM_DeviceDisconnected;
 2260               		.loc 4 20 0
 2261 0044 8EB3      		in r24,0x1e
 2262 0046 8823      		tst r24
 2263 0048 01F0      		breq .L249
  22:../../LUFA/Drivers/USB/LowLevel/Template/Template_Endpoint_Control_W.c **** 		  return ENDPOINT_RWCSTREAM_BusSuspended;
 2264               		.loc 4 22 0
 2265 004a 8EB3      		in r24,0x1e
 2266 004c 8530      		cpi r24,lo8(5)
 2267 004e 01F0      		breq .L250
 2268               	.LBB407:
 2269               	.LBB408:
 405:../../LUFA/Drivers/USB/LowLevel/Endpoint.h **** 			}
 2270               		.loc 2 405 0
 2271 0050 8091 E800 		lds r24,232
 2272               	.LBE408:
 2273               	.LBE407:
  25:../../LUFA/Drivers/USB/LowLevel/Template/Template_Endpoint_Control_W.c **** 		{
 2274               		.loc 4 25 0
 2275 0054 80FF      		sbrs r24,0
 2276 0056 00C0      		rjmp .L238
 2277               	.LBB409:
 2278               	.LBB397:
 2279               	.LBB398:
 266:../../LUFA/Drivers/USB/LowLevel/Endpoint.h **** 				#endif
 2280               		.loc 2 266 0
 2281 0058 1091 F200 		lds r17,242
 2282               	.LVL211:
 2283               	.L239:
 2284               	.LBE398:
 2285               	.LBE397:
  29:../../LUFA/Drivers/USB/LowLevel/Template/Template_Endpoint_Control_W.c **** 			{
 2286               		.loc 4 29 0
 2287 005c 2097      		sbiw r28,0
 2288 005e 01F0      		breq .L240
  29:../../LUFA/Drivers/USB/LowLevel/Template/Template_Endpoint_Control_W.c **** 			{
 2289               		.loc 4 29 0 is_stmt 0 discriminator 1
 2290 0060 1830      		cpi r17,lo8(8)
 2291 0062 00F4      		brsh .L240
  31:../../LUFA/Drivers/USB/LowLevel/Template/Template_Endpoint_Control_W.c **** 				Length--;
 2292               		.loc 4 31 0 is_stmt 1
 2293 0064 7901      		movw r14,r18
 2294 0066 8FEF      		ldi r24,-1
 2295 0068 E81A      		sub r14,r24
 2296 006a F80A      		sbc r15,r24
 2297               	.LVL212:
 2298 006c C901      		movw r24,r18
 2299 006e 0E94 0000 		call eeprom_read_byte
 2300               	.LVL213:
 2301               	.LBB399:
 2302               	.LBB400:
 562:../../LUFA/Drivers/USB/LowLevel/Endpoint.h **** 			}
 2303               		.loc 2 562 0
 2304 0072 8093 F100 		sts 241,r24
 2305               	.LBE400:
 2306               	.LBE399:
  32:../../LUFA/Drivers/USB/LowLevel/Template/Template_Endpoint_Control_W.c **** 				BytesInEndpoint++;
 2307               		.loc 4 32 0
 2308 0076 2197      		sbiw r28,1
 2309               	.LVL214:
  33:../../LUFA/Drivers/USB/LowLevel/Template/Template_Endpoint_Control_W.c **** 			}
 2310               		.loc 4 33 0
 2311 0078 1F5F      		subi r17,lo8(-(1))
 2312               	.LVL215:
  31:../../LUFA/Drivers/USB/LowLevel/Template/Template_Endpoint_Control_W.c **** 				Length--;
 2313               		.loc 4 31 0
 2314 007a 9701      		movw r18,r14
 2315 007c 00C0      		rjmp .L239
 2316               	.LVL216:
 2317               	.L240:
  36:../../LUFA/Drivers/USB/LowLevel/Template/Template_Endpoint_Control_W.c **** 			Endpoint_ClearIN();
 2318               		.loc 4 36 0
 2319 007e 91E0      		ldi r25,lo8(1)
 2320 0080 1830      		cpi r17,lo8(8)
 2321 0082 01F0      		breq .L242
 2322 0084 90E0      		ldi r25,0
 2323               	.L242:
 2324               	.LVL217:
 2325               	.LBB401:
 2326               	.LBB402:
 454:../../LUFA/Drivers/USB/LowLevel/Endpoint.h **** 				#else
 2327               		.loc 2 454 0
 2328 0086 8091 E800 		lds r24,232
 2329 008a 8E77      		andi r24,lo8(126)
 2330 008c 8093 E800 		sts 232,r24
 2331 0090 00C0      		rjmp .L238
 2332               	.LVL218:
 2333               	.L260:
 2334               	.LBE402:
 2335               	.LBE401:
 2336               	.LBE409:
  12:../../LUFA/Drivers/USB/LowLevel/Template/Template_Endpoint_Control_W.c **** 	{
 2337               		.loc 4 12 0 discriminator 1
 2338 0092 9111      		cpse r25,__zero_reg__
 2339 0094 00C0      		rjmp .L243
 2340 0096 00C0      		rjmp .L256
 2341               	.L244:
  43:../../LUFA/Drivers/USB/LowLevel/Template/Template_Endpoint_Control_W.c **** 		  return ENDPOINT_RWCSTREAM_DeviceDisconnected;
 2342               		.loc 4 43 0
 2343 0098 8EB3      		in r24,0x1e
 2344 009a 8823      		tst r24
 2345 009c 01F0      		breq .L249
  45:../../LUFA/Drivers/USB/LowLevel/Template/Template_Endpoint_Control_W.c **** 		  return ENDPOINT_RWCSTREAM_BusSuspended;
 2346               		.loc 4 45 0
 2347 009e 8EB3      		in r24,0x1e
 2348 00a0 8530      		cpi r24,lo8(5)
 2349 00a2 01F0      		breq .L250
 2350               	.L256:
 2351               	.LBB410:
 2352               	.LBB411:
 417:../../LUFA/Drivers/USB/LowLevel/Endpoint.h **** 			}
 2353               		.loc 2 417 0
 2354 00a4 8091 E800 		lds r24,232
 2355               	.LBE411:
 2356               	.LBE410:
  41:../../LUFA/Drivers/USB/LowLevel/Template/Template_Endpoint_Control_W.c **** 	{
 2357               		.loc 4 41 0
 2358 00a8 82FF      		sbrs r24,2
 2359 00aa 00C0      		rjmp .L244
  49:../../LUFA/Drivers/USB/LowLevel/Template/Template_Endpoint_Control_W.c **** }
 2360               		.loc 4 49 0
 2361 00ac 80E0      		ldi r24,0
 2362 00ae 00C0      		rjmp .L236
 2363               	.L246:
  15:../../LUFA/Drivers/USB/LowLevel/Template/Template_Endpoint_Control_W.c **** 
 2364               		.loc 4 15 0
 2365 00b0 81E0      		ldi r24,lo8(1)
 2366 00b2 00C0      		rjmp .L236
 2367               	.L249:
  21:../../LUFA/Drivers/USB/LowLevel/Template/Template_Endpoint_Control_W.c **** 		else if (USB_DeviceState == DEVICE_STATE_Suspended)
 2368               		.loc 4 21 0
 2369 00b4 82E0      		ldi r24,lo8(2)
 2370 00b6 00C0      		rjmp .L236
 2371               	.L250:
  23:../../LUFA/Drivers/USB/LowLevel/Template/Template_Endpoint_Control_W.c **** 		  
 2372               		.loc 4 23 0
 2373 00b8 83E0      		ldi r24,lo8(3)
 2374               	.L236:
 2375               	/* epilogue start */
 2376               		.loc 4 50 0
 2377 00ba DF91      		pop r29
 2378 00bc CF91      		pop r28
 2379               	.LVL219:
 2380 00be 1F91      		pop r17
 2381 00c0 FF90      		pop r15
 2382 00c2 EF90      		pop r14
 2383 00c4 0895      		ret
 2384               		.cfi_endproc
 2385               	.LFE82:
 2387               		.section	.text.Endpoint_Write_Control_Stream_BE,"ax",@progbits
 2388               	.global	Endpoint_Write_Control_Stream_BE
 2390               	Endpoint_Write_Control_Stream_BE:
 2391               	.LFB83:
   3:../../LUFA/Drivers/USB/LowLevel/Template/Template_Endpoint_Control_W.c **** 	uint8_t* DataStream     = ((uint8_t*)Buffer + TEMPLATE_BUFFER_OFFSET(Length));
 2392               		.loc 4 3 0
 2393               		.cfi_startproc
 2394               	.LVL220:
 2395               	/* prologue: function */
 2396               	/* frame size = 0 */
 2397               	/* stack size = 0 */
 2398               	.L__stack_usage = 0
   4:../../LUFA/Drivers/USB/LowLevel/Template/Template_Endpoint_Control_W.c **** 	bool     LastPacketFull = false;
 2399               		.loc 4 4 0
 2400 0000 9B01      		movw r18,r22
 2401 0002 2150      		subi r18,1
 2402 0004 3109      		sbc r19,__zero_reg__
 2403 0006 820F      		add r24,r18
 2404 0008 931F      		adc r25,r19
 2405               	.LVL221:
   7:../../LUFA/Drivers/USB/LowLevel/Template/Template_Endpoint_Control_W.c **** 	  Length = USB_ControlRequest.wLength;
 2406               		.loc 4 7 0
 2407 000a 2091 0000 		lds r18,USB_ControlRequest+6
 2408 000e 3091 0000 		lds r19,USB_ControlRequest+6+1
 2409 0012 2617      		cp r18,r22
 2410 0014 3707      		cpc r19,r23
 2411 0016 00F0      		brlo .L273
   9:../../LUFA/Drivers/USB/LowLevel/Template/Template_Endpoint_Control_W.c **** 	  Endpoint_ClearIN();
 2412               		.loc 4 9 0
 2413 0018 6115      		cp r22,__zero_reg__
 2414 001a 7105      		cpc r23,__zero_reg__
 2415 001c 01F4      		brne .L262
 2416               	.LBB412:
 2417               	.LBB413:
 454:../../LUFA/Drivers/USB/LowLevel/Endpoint.h **** 				#else
 2418               		.loc 2 454 0
 2419 001e 2091 E800 		lds r18,232
 2420 0022 2E77      		andi r18,lo8(126)
 2421 0024 2093 E800 		sts 232,r18
 2422 0028 00C0      		rjmp .L262
 2423               	.L273:
 2424               	.LBE413:
 2425               	.LBE412:
 2426 002a B901      		movw r22,r18
 2427               	.LVL222:
 2428               	.L262:
 2429 002c 30E0      		ldi r19,0
 2430               	.LVL223:
 2431               	.L266:
  12:../../LUFA/Drivers/USB/LowLevel/Template/Template_Endpoint_Control_W.c **** 	{
 2432               		.loc 4 12 0
 2433 002e 6115      		cp r22,__zero_reg__
 2434 0030 7105      		cpc r23,__zero_reg__
 2435 0032 01F0      		breq .L288
 2436               	.L271:
 2437               	.LBB414:
 2438               	.LBB415:
 429:../../LUFA/Drivers/USB/LowLevel/Endpoint.h **** 			}
 2439               		.loc 2 429 0
 2440 0034 2091 E800 		lds r18,232
 2441               	.LBE415:
 2442               	.LBE414:
  14:../../LUFA/Drivers/USB/LowLevel/Template/Template_Endpoint_Control_W.c **** 		  return ENDPOINT_RWCSTREAM_HostAborted;
 2443               		.loc 4 14 0
 2444 0038 23FD      		sbrc r18,3
 2445 003a 00C0      		rjmp .L274
 2446               	.LBB416:
 2447               	.LBB417:
 417:../../LUFA/Drivers/USB/LowLevel/Endpoint.h **** 			}
 2448               		.loc 2 417 0
 2449 003c 2091 E800 		lds r18,232
 2450               	.LBE417:
 2451               	.LBE416:
  17:../../LUFA/Drivers/USB/LowLevel/Template/Template_Endpoint_Control_W.c **** 		  break;
 2452               		.loc 4 17 0
 2453 0040 22FD      		sbrc r18,2
 2454 0042 00C0      		rjmp .L284
  20:../../LUFA/Drivers/USB/LowLevel/Template/Template_Endpoint_Control_W.c **** 		  return ENDPOINT_RWCSTREAM_DeviceDisconnected;
 2455               		.loc 4 20 0
 2456 0044 2EB3      		in r18,0x1e
 2457 0046 2223      		tst r18
 2458 0048 01F0      		breq .L277
  22:../../LUFA/Drivers/USB/LowLevel/Template/Template_Endpoint_Control_W.c **** 		  return ENDPOINT_RWCSTREAM_BusSuspended;
 2459               		.loc 4 22 0
 2460 004a 2EB3      		in r18,0x1e
 2461 004c 2530      		cpi r18,lo8(5)
 2462 004e 01F0      		breq .L278
 2463               	.LBB418:
 2464               	.LBB419:
 405:../../LUFA/Drivers/USB/LowLevel/Endpoint.h **** 			}
 2465               		.loc 2 405 0
 2466 0050 2091 E800 		lds r18,232
 2467               	.LBE419:
 2468               	.LBE418:
  25:../../LUFA/Drivers/USB/LowLevel/Template/Template_Endpoint_Control_W.c **** 		{
 2469               		.loc 4 25 0
 2470 0054 20FF      		sbrs r18,0
 2471 0056 00C0      		rjmp .L266
 2472               	.LBB420:
 2473               	.LBB421:
 2474               	.LBB422:
 266:../../LUFA/Drivers/USB/LowLevel/Endpoint.h **** 				#endif
 2475               		.loc 2 266 0
 2476 0058 2091 F200 		lds r18,242
 2477               	.LVL224:
 2478 005c FC01      		movw r30,r24
 2479               	.LVL225:
 2480               	.L267:
 2481 005e CF01      		movw r24,r30
 2482               	.LVL226:
 2483               	.LBE422:
 2484               	.LBE421:
  29:../../LUFA/Drivers/USB/LowLevel/Template/Template_Endpoint_Control_W.c **** 			{
 2485               		.loc 4 29 0
 2486 0060 6115      		cp r22,__zero_reg__
 2487 0062 7105      		cpc r23,__zero_reg__
 2488 0064 01F0      		breq .L268
  29:../../LUFA/Drivers/USB/LowLevel/Template/Template_Endpoint_Control_W.c **** 			{
 2489               		.loc 4 29 0 is_stmt 0 discriminator 1
 2490 0066 2830      		cpi r18,lo8(8)
 2491 0068 00F4      		brsh .L268
 2492               	.LVL227:
  31:../../LUFA/Drivers/USB/LowLevel/Template/Template_Endpoint_Control_W.c **** 				Length--;
 2493               		.loc 4 31 0 is_stmt 1
 2494 006a 8081      		ld r24,Z
 2495               	.LVL228:
 2496               	.LBB423:
 2497               	.LBB424:
 562:../../LUFA/Drivers/USB/LowLevel/Endpoint.h **** 			}
 2498               		.loc 2 562 0
 2499 006c 8093 F100 		sts 241,r24
 2500               	.LBE424:
 2501               	.LBE423:
  32:../../LUFA/Drivers/USB/LowLevel/Template/Template_Endpoint_Control_W.c **** 				BytesInEndpoint++;
 2502               		.loc 4 32 0
 2503 0070 6150      		subi r22,1
 2504 0072 7109      		sbc r23,__zero_reg__
 2505               	.LVL229:
  33:../../LUFA/Drivers/USB/LowLevel/Template/Template_Endpoint_Control_W.c **** 			}
 2506               		.loc 4 33 0
 2507 0074 2F5F      		subi r18,lo8(-(1))
 2508               	.LVL230:
 2509 0076 3197      		sbiw r30,1
 2510               	.LVL231:
 2511 0078 00C0      		rjmp .L267
 2512               	.LVL232:
 2513               	.L268:
  36:../../LUFA/Drivers/USB/LowLevel/Template/Template_Endpoint_Control_W.c **** 			Endpoint_ClearIN();
 2514               		.loc 4 36 0
 2515 007a 31E0      		ldi r19,lo8(1)
 2516               	.LVL233:
 2517 007c 2830      		cpi r18,lo8(8)
 2518 007e 01F0      		breq .L270
 2519 0080 30E0      		ldi r19,0
 2520               	.L270:
 2521               	.LVL234:
 2522               	.LBB425:
 2523               	.LBB426:
 454:../../LUFA/Drivers/USB/LowLevel/Endpoint.h **** 				#else
 2524               		.loc 2 454 0
 2525 0082 2091 E800 		lds r18,232
 2526               	.LVL235:
 2527 0086 2E77      		andi r18,lo8(126)
 2528 0088 2093 E800 		sts 232,r18
 2529 008c 00C0      		rjmp .L266
 2530               	.L288:
 2531               	.LBE426:
 2532               	.LBE425:
 2533               	.LBE420:
  12:../../LUFA/Drivers/USB/LowLevel/Template/Template_Endpoint_Control_W.c **** 	{
 2534               		.loc 4 12 0 discriminator 1
 2535 008e 3111      		cpse r19,__zero_reg__
 2536 0090 00C0      		rjmp .L271
 2537 0092 00C0      		rjmp .L284
 2538               	.LVL236:
 2539               	.L272:
  43:../../LUFA/Drivers/USB/LowLevel/Template/Template_Endpoint_Control_W.c **** 		  return ENDPOINT_RWCSTREAM_DeviceDisconnected;
 2540               		.loc 4 43 0
 2541 0094 8EB3      		in r24,0x1e
 2542 0096 8823      		tst r24
 2543 0098 01F0      		breq .L277
  45:../../LUFA/Drivers/USB/LowLevel/Template/Template_Endpoint_Control_W.c **** 		  return ENDPOINT_RWCSTREAM_BusSuspended;
 2544               		.loc 4 45 0
 2545 009a 8EB3      		in r24,0x1e
 2546 009c 8530      		cpi r24,lo8(5)
 2547 009e 01F0      		breq .L278
 2548               	.L284:
 2549               	.LBB427:
 2550               	.LBB428:
 417:../../LUFA/Drivers/USB/LowLevel/Endpoint.h **** 			}
 2551               		.loc 2 417 0
 2552 00a0 8091 E800 		lds r24,232
 2553               	.LBE428:
 2554               	.LBE427:
  41:../../LUFA/Drivers/USB/LowLevel/Template/Template_Endpoint_Control_W.c **** 	{
 2555               		.loc 4 41 0
 2556 00a4 82FF      		sbrs r24,2
 2557 00a6 00C0      		rjmp .L272
  49:../../LUFA/Drivers/USB/LowLevel/Template/Template_Endpoint_Control_W.c **** }
 2558               		.loc 4 49 0
 2559 00a8 80E0      		ldi r24,0
 2560 00aa 0895      		ret
 2561               	.LVL237:
 2562               	.L274:
  15:../../LUFA/Drivers/USB/LowLevel/Template/Template_Endpoint_Control_W.c **** 
 2563               		.loc 4 15 0
 2564 00ac 81E0      		ldi r24,lo8(1)
 2565               	.LVL238:
 2566 00ae 0895      		ret
 2567               	.L277:
  21:../../LUFA/Drivers/USB/LowLevel/Template/Template_Endpoint_Control_W.c **** 		else if (USB_DeviceState == DEVICE_STATE_Suspended)
 2568               		.loc 4 21 0
 2569 00b0 82E0      		ldi r24,lo8(2)
 2570 00b2 0895      		ret
 2571               	.L278:
  23:../../LUFA/Drivers/USB/LowLevel/Template/Template_Endpoint_Control_W.c **** 		  
 2572               		.loc 4 23 0
 2573 00b4 83E0      		ldi r24,lo8(3)
 2574               		.loc 4 50 0
 2575 00b6 0895      		ret
 2576               		.cfi_endproc
 2577               	.LFE83:
 2579               		.section	.text.Endpoint_Write_Control_PStream_BE,"ax",@progbits
 2580               	.global	Endpoint_Write_Control_PStream_BE
 2582               	Endpoint_Write_Control_PStream_BE:
 2583               	.LFB84:
   3:../../LUFA/Drivers/USB/LowLevel/Template/Template_Endpoint_Control_W.c **** 	uint8_t* DataStream     = ((uint8_t*)Buffer + TEMPLATE_BUFFER_OFFSET(Length));
 2584               		.loc 4 3 0
 2585               		.cfi_startproc
 2586               	.LVL239:
 2587               	/* prologue: function */
 2588               	/* frame size = 0 */
 2589               	/* stack size = 0 */
 2590               	.L__stack_usage = 0
   4:../../LUFA/Drivers/USB/LowLevel/Template/Template_Endpoint_Control_W.c **** 	bool     LastPacketFull = false;
 2591               		.loc 4 4 0
 2592 0000 9B01      		movw r18,r22
 2593 0002 2150      		subi r18,1
 2594 0004 3109      		sbc r19,__zero_reg__
 2595 0006 820F      		add r24,r18
 2596 0008 931F      		adc r25,r19
 2597               	.LVL240:
   7:../../LUFA/Drivers/USB/LowLevel/Template/Template_Endpoint_Control_W.c **** 	  Length = USB_ControlRequest.wLength;
 2598               		.loc 4 7 0
 2599 000a 2091 0000 		lds r18,USB_ControlRequest+6
 2600 000e 3091 0000 		lds r19,USB_ControlRequest+6+1
 2601 0012 2617      		cp r18,r22
 2602 0014 3707      		cpc r19,r23
 2603 0016 00F0      		brlo .L301
   9:../../LUFA/Drivers/USB/LowLevel/Template/Template_Endpoint_Control_W.c **** 	  Endpoint_ClearIN();
 2604               		.loc 4 9 0
 2605 0018 6115      		cp r22,__zero_reg__
 2606 001a 7105      		cpc r23,__zero_reg__
 2607 001c 01F4      		brne .L290
 2608               	.LBB429:
 2609               	.LBB430:
 454:../../LUFA/Drivers/USB/LowLevel/Endpoint.h **** 				#else
 2610               		.loc 2 454 0
 2611 001e 2091 E800 		lds r18,232
 2612 0022 2E77      		andi r18,lo8(126)
 2613 0024 2093 E800 		sts 232,r18
 2614 0028 00C0      		rjmp .L290
 2615               	.L301:
 2616               	.LBE430:
 2617               	.LBE429:
 2618 002a B901      		movw r22,r18
 2619               	.LVL241:
 2620               	.L290:
 2621               	.LBB431:
  29:../../LUFA/Drivers/USB/LowLevel/Template/Template_Endpoint_Control_W.c **** 			{
 2622               		.loc 4 29 0
 2623 002c 30E0      		ldi r19,0
 2624               	.LVL242:
 2625               	.L294:
 2626               	.LBE431:
  12:../../LUFA/Drivers/USB/LowLevel/Template/Template_Endpoint_Control_W.c **** 	{
 2627               		.loc 4 12 0
 2628 002e 6115      		cp r22,__zero_reg__
 2629 0030 7105      		cpc r23,__zero_reg__
 2630 0032 01F0      		breq .L316
 2631               	.L299:
 2632               	.LBB439:
 2633               	.LBB440:
 429:../../LUFA/Drivers/USB/LowLevel/Endpoint.h **** 			}
 2634               		.loc 2 429 0
 2635 0034 2091 E800 		lds r18,232
 2636               	.LBE440:
 2637               	.LBE439:
  14:../../LUFA/Drivers/USB/LowLevel/Template/Template_Endpoint_Control_W.c **** 		  return ENDPOINT_RWCSTREAM_HostAborted;
 2638               		.loc 4 14 0
 2639 0038 23FD      		sbrc r18,3
 2640 003a 00C0      		rjmp .L302
 2641               	.LBB441:
 2642               	.LBB442:
 417:../../LUFA/Drivers/USB/LowLevel/Endpoint.h **** 			}
 2643               		.loc 2 417 0
 2644 003c 2091 E800 		lds r18,232
 2645               	.LBE442:
 2646               	.LBE441:
  17:../../LUFA/Drivers/USB/LowLevel/Template/Template_Endpoint_Control_W.c **** 		  break;
 2647               		.loc 4 17 0
 2648 0040 22FD      		sbrc r18,2
 2649 0042 00C0      		rjmp .L312
  20:../../LUFA/Drivers/USB/LowLevel/Template/Template_Endpoint_Control_W.c **** 		  return ENDPOINT_RWCSTREAM_DeviceDisconnected;
 2650               		.loc 4 20 0
 2651 0044 2EB3      		in r18,0x1e
 2652 0046 2223      		tst r18
 2653 0048 01F0      		breq .L305
  22:../../LUFA/Drivers/USB/LowLevel/Template/Template_Endpoint_Control_W.c **** 		  return ENDPOINT_RWCSTREAM_BusSuspended;
 2654               		.loc 4 22 0
 2655 004a 2EB3      		in r18,0x1e
 2656 004c 2530      		cpi r18,lo8(5)
 2657 004e 01F0      		breq .L306
 2658               	.LBB443:
 2659               	.LBB444:
 405:../../LUFA/Drivers/USB/LowLevel/Endpoint.h **** 			}
 2660               		.loc 2 405 0
 2661 0050 2091 E800 		lds r18,232
 2662               	.LBE444:
 2663               	.LBE443:
  25:../../LUFA/Drivers/USB/LowLevel/Template/Template_Endpoint_Control_W.c **** 		{
 2664               		.loc 4 25 0
 2665 0054 20FF      		sbrs r18,0
 2666 0056 00C0      		rjmp .L294
 2667               	.LBB445:
 2668               	.LBB432:
 2669               	.LBB433:
 266:../../LUFA/Drivers/USB/LowLevel/Endpoint.h **** 				#endif
 2670               		.loc 2 266 0
 2671 0058 2091 F200 		lds r18,242
 2672               	.LVL243:
 2673               	.LBE433:
 2674               	.LBE432:
  29:../../LUFA/Drivers/USB/LowLevel/Template/Template_Endpoint_Control_W.c **** 			{
 2675               		.loc 4 29 0
 2676 005c FC01      		movw r30,r24
 2677               	.LVL244:
 2678               	.L295:
 2679 005e CF01      		movw r24,r30
 2680               	.LVL245:
 2681 0060 6115      		cp r22,__zero_reg__
 2682 0062 7105      		cpc r23,__zero_reg__
 2683 0064 01F0      		breq .L296
  29:../../LUFA/Drivers/USB/LowLevel/Template/Template_Endpoint_Control_W.c **** 			{
 2684               		.loc 4 29 0 is_stmt 0 discriminator 1
 2685 0066 2830      		cpi r18,lo8(8)
 2686 0068 00F4      		brsh .L296
 2687               	.LVL246:
 2688               	.LBB434:
  31:../../LUFA/Drivers/USB/LowLevel/Template/Template_Endpoint_Control_W.c **** 				Length--;
 2689               		.loc 4 31 0 is_stmt 1
 2690               	/* #APP */
 2691               	 ;  31 "../../LUFA/Drivers/USB/LowLevel/Template/Template_Endpoint_Control_W.c" 1
 2692 006a 8491      		lpm r24, Z
 2693               		
 2694               	 ;  0 "" 2
 2695               	.LVL247:
 2696               	/* #NOAPP */
 2697               	.LBE434:
 2698               	.LBB435:
 2699               	.LBB436:
 562:../../LUFA/Drivers/USB/LowLevel/Endpoint.h **** 			}
 2700               		.loc 2 562 0
 2701 006c 8093 F100 		sts 241,r24
 2702               	.LBE436:
 2703               	.LBE435:
  32:../../LUFA/Drivers/USB/LowLevel/Template/Template_Endpoint_Control_W.c **** 				BytesInEndpoint++;
 2704               		.loc 4 32 0
 2705 0070 6150      		subi r22,1
 2706 0072 7109      		sbc r23,__zero_reg__
 2707               	.LVL248:
  33:../../LUFA/Drivers/USB/LowLevel/Template/Template_Endpoint_Control_W.c **** 			}
 2708               		.loc 4 33 0
 2709 0074 2F5F      		subi r18,lo8(-(1))
 2710               	.LVL249:
 2711 0076 3197      		sbiw r30,1
 2712               	.LVL250:
 2713 0078 00C0      		rjmp .L295
 2714               	.LVL251:
 2715               	.L296:
  36:../../LUFA/Drivers/USB/LowLevel/Template/Template_Endpoint_Control_W.c **** 			Endpoint_ClearIN();
 2716               		.loc 4 36 0
 2717 007a 31E0      		ldi r19,lo8(1)
 2718               	.LVL252:
 2719 007c 2830      		cpi r18,lo8(8)
 2720 007e 01F0      		breq .L298
 2721 0080 30E0      		ldi r19,0
 2722               	.L298:
 2723               	.LVL253:
 2724               	.LBB437:
 2725               	.LBB438:
 454:../../LUFA/Drivers/USB/LowLevel/Endpoint.h **** 				#else
 2726               		.loc 2 454 0
 2727 0082 2091 E800 		lds r18,232
 2728               	.LVL254:
 2729 0086 2E77      		andi r18,lo8(126)
 2730 0088 2093 E800 		sts 232,r18
 2731 008c 00C0      		rjmp .L294
 2732               	.L316:
 2733               	.LBE438:
 2734               	.LBE437:
 2735               	.LBE445:
  12:../../LUFA/Drivers/USB/LowLevel/Template/Template_Endpoint_Control_W.c **** 	{
 2736               		.loc 4 12 0 discriminator 1
 2737 008e 3111      		cpse r19,__zero_reg__
 2738 0090 00C0      		rjmp .L299
 2739 0092 00C0      		rjmp .L312
 2740               	.LVL255:
 2741               	.L300:
  43:../../LUFA/Drivers/USB/LowLevel/Template/Template_Endpoint_Control_W.c **** 		  return ENDPOINT_RWCSTREAM_DeviceDisconnected;
 2742               		.loc 4 43 0
 2743 0094 8EB3      		in r24,0x1e
 2744 0096 8823      		tst r24
 2745 0098 01F0      		breq .L305
  45:../../LUFA/Drivers/USB/LowLevel/Template/Template_Endpoint_Control_W.c **** 		  return ENDPOINT_RWCSTREAM_BusSuspended;
 2746               		.loc 4 45 0
 2747 009a 8EB3      		in r24,0x1e
 2748 009c 8530      		cpi r24,lo8(5)
 2749 009e 01F0      		breq .L306
 2750               	.L312:
 2751               	.LBB446:
 2752               	.LBB447:
 417:../../LUFA/Drivers/USB/LowLevel/Endpoint.h **** 			}
 2753               		.loc 2 417 0
 2754 00a0 8091 E800 		lds r24,232
 2755               	.LBE447:
 2756               	.LBE446:
  41:../../LUFA/Drivers/USB/LowLevel/Template/Template_Endpoint_Control_W.c **** 	{
 2757               		.loc 4 41 0
 2758 00a4 82FF      		sbrs r24,2
 2759 00a6 00C0      		rjmp .L300
  49:../../LUFA/Drivers/USB/LowLevel/Template/Template_Endpoint_Control_W.c **** }
 2760               		.loc 4 49 0
 2761 00a8 80E0      		ldi r24,0
 2762 00aa 0895      		ret
 2763               	.LVL256:
 2764               	.L302:
  15:../../LUFA/Drivers/USB/LowLevel/Template/Template_Endpoint_Control_W.c **** 
 2765               		.loc 4 15 0
 2766 00ac 81E0      		ldi r24,lo8(1)
 2767               	.LVL257:
 2768 00ae 0895      		ret
 2769               	.L305:
  21:../../LUFA/Drivers/USB/LowLevel/Template/Template_Endpoint_Control_W.c **** 		else if (USB_DeviceState == DEVICE_STATE_Suspended)
 2770               		.loc 4 21 0
 2771 00b0 82E0      		ldi r24,lo8(2)
 2772 00b2 0895      		ret
 2773               	.L306:
  23:../../LUFA/Drivers/USB/LowLevel/Template/Template_Endpoint_Control_W.c **** 		  
 2774               		.loc 4 23 0
 2775 00b4 83E0      		ldi r24,lo8(3)
 2776               		.loc 4 50 0
 2777 00b6 0895      		ret
 2778               		.cfi_endproc
 2779               	.LFE84:
 2781               		.section	.text.Endpoint_Write_Control_EStream_BE,"ax",@progbits
 2782               	.global	Endpoint_Write_Control_EStream_BE
 2784               	Endpoint_Write_Control_EStream_BE:
 2785               	.LFB85:
   3:../../LUFA/Drivers/USB/LowLevel/Template/Template_Endpoint_Control_W.c **** 	uint8_t* DataStream     = ((uint8_t*)Buffer + TEMPLATE_BUFFER_OFFSET(Length));
 2786               		.loc 4 3 0
 2787               		.cfi_startproc
 2788               	.LVL258:
 2789 0000 CF92      		push r12
 2790               	.LCFI77:
 2791               		.cfi_def_cfa_offset 3
 2792               		.cfi_offset 12, -2
 2793 0002 DF92      		push r13
 2794               	.LCFI78:
 2795               		.cfi_def_cfa_offset 4
 2796               		.cfi_offset 13, -3
 2797 0004 EF92      		push r14
 2798               	.LCFI79:
 2799               		.cfi_def_cfa_offset 5
 2800               		.cfi_offset 14, -4
 2801 0006 FF92      		push r15
 2802               	.LCFI80:
 2803               		.cfi_def_cfa_offset 6
 2804               		.cfi_offset 15, -5
 2805 0008 0F93      		push r16
 2806               	.LCFI81:
 2807               		.cfi_def_cfa_offset 7
 2808               		.cfi_offset 16, -6
 2809 000a 1F93      		push r17
 2810               	.LCFI82:
 2811               		.cfi_def_cfa_offset 8
 2812               		.cfi_offset 17, -7
 2813 000c CF93      		push r28
 2814               	.LCFI83:
 2815               		.cfi_def_cfa_offset 9
 2816               		.cfi_offset 28, -8
 2817 000e DF93      		push r29
 2818               	.LCFI84:
 2819               		.cfi_def_cfa_offset 10
 2820               		.cfi_offset 29, -9
 2821 0010 1F92      		push __zero_reg__
 2822               	.LCFI85:
 2823               		.cfi_def_cfa_offset 11
 2824 0012 CDB7      		in r28,__SP_L__
 2825 0014 DEB7      		in r29,__SP_H__
 2826               	.LCFI86:
 2827               		.cfi_def_cfa_register 28
 2828               	/* prologue: function */
 2829               	/* frame size = 1 */
 2830               	/* stack size = 9 */
 2831               	.L__stack_usage = 9
 2832 0016 6B01      		movw r12,r22
   4:../../LUFA/Drivers/USB/LowLevel/Template/Template_Endpoint_Control_W.c **** 	bool     LastPacketFull = false;
 2833               		.loc 4 4 0
 2834 0018 8B01      		movw r16,r22
 2835 001a 0150      		subi r16,1
 2836 001c 1109      		sbc r17,__zero_reg__
 2837 001e 080F      		add r16,r24
 2838 0020 191F      		adc r17,r25
 2839               	.LVL259:
   7:../../LUFA/Drivers/USB/LowLevel/Template/Template_Endpoint_Control_W.c **** 	  Length = USB_ControlRequest.wLength;
 2840               		.loc 4 7 0
 2841 0022 8091 0000 		lds r24,USB_ControlRequest+6
 2842 0026 9091 0000 		lds r25,USB_ControlRequest+6+1
 2843               	.LVL260:
 2844 002a 8617      		cp r24,r22
 2845 002c 9707      		cpc r25,r23
 2846 002e 00F0      		brlo .L329
   9:../../LUFA/Drivers/USB/LowLevel/Template/Template_Endpoint_Control_W.c **** 	  Endpoint_ClearIN();
 2847               		.loc 4 9 0
 2848 0030 672B      		or r22,r23
 2849 0032 01F4      		brne .L318
 2850               	.LBB448:
 2851               	.LBB449:
 454:../../LUFA/Drivers/USB/LowLevel/Endpoint.h **** 				#else
 2852               		.loc 2 454 0
 2853 0034 8091 E800 		lds r24,232
 2854 0038 8E77      		andi r24,lo8(126)
 2855 003a 8093 E800 		sts 232,r24
 2856 003e 00C0      		rjmp .L318
 2857               	.L329:
 2858               	.LBE449:
 2859               	.LBE448:
 2860 0040 6C01      		movw r12,r24
 2861               	.L318:
 2862               	.LBB450:
 2863 0042 80E0      		ldi r24,0
 2864               	.LVL261:
 2865               	.L322:
 2866               	.LBE450:
  12:../../LUFA/Drivers/USB/LowLevel/Template/Template_Endpoint_Control_W.c **** 	{
 2867               		.loc 4 12 0
 2868 0044 C114      		cp r12,__zero_reg__
 2869 0046 D104      		cpc r13,__zero_reg__
 2870 0048 01F0      		breq .L342
 2871               	.L327:
 2872               	.LBB457:
 2873               	.LBB458:
 429:../../LUFA/Drivers/USB/LowLevel/Endpoint.h **** 			}
 2874               		.loc 2 429 0
 2875 004a 9091 E800 		lds r25,232
 2876               	.LBE458:
 2877               	.LBE457:
  14:../../LUFA/Drivers/USB/LowLevel/Template/Template_Endpoint_Control_W.c **** 		  return ENDPOINT_RWCSTREAM_HostAborted;
 2878               		.loc 4 14 0
 2879 004e 93FD      		sbrc r25,3
 2880 0050 00C0      		rjmp .L330
 2881               	.LBB459:
 2882               	.LBB460:
 417:../../LUFA/Drivers/USB/LowLevel/Endpoint.h **** 			}
 2883               		.loc 2 417 0
 2884 0052 9091 E800 		lds r25,232
 2885               	.LBE460:
 2886               	.LBE459:
  17:../../LUFA/Drivers/USB/LowLevel/Template/Template_Endpoint_Control_W.c **** 		  break;
 2887               		.loc 4 17 0
 2888 0056 92FD      		sbrc r25,2
 2889 0058 00C0      		rjmp .L339
  20:../../LUFA/Drivers/USB/LowLevel/Template/Template_Endpoint_Control_W.c **** 		  return ENDPOINT_RWCSTREAM_DeviceDisconnected;
 2890               		.loc 4 20 0
 2891 005a 9EB3      		in r25,0x1e
 2892 005c 9923      		tst r25
 2893 005e 01F0      		breq .L334
  22:../../LUFA/Drivers/USB/LowLevel/Template/Template_Endpoint_Control_W.c **** 		  return ENDPOINT_RWCSTREAM_BusSuspended;
 2894               		.loc 4 22 0
 2895 0060 9EB3      		in r25,0x1e
 2896 0062 9530      		cpi r25,lo8(5)
 2897 0064 01F0      		breq .L335
 2898               	.LBB461:
 2899               	.LBB462:
 405:../../LUFA/Drivers/USB/LowLevel/Endpoint.h **** 			}
 2900               		.loc 2 405 0
 2901 0066 9091 E800 		lds r25,232
 2902               	.LBE462:
 2903               	.LBE461:
  25:../../LUFA/Drivers/USB/LowLevel/Template/Template_Endpoint_Control_W.c **** 		{
 2904               		.loc 4 25 0
 2905 006a 90FF      		sbrs r25,0
 2906 006c 00C0      		rjmp .L322
 2907               	.LBB463:
 2908               	.LBB451:
 2909               	.LBB452:
 266:../../LUFA/Drivers/USB/LowLevel/Endpoint.h **** 				#endif
 2910               		.loc 2 266 0
 2911 006e 2091 F200 		lds r18,242
 2912               	.LVL262:
 2913               	.LBE452:
 2914               	.LBE451:
  29:../../LUFA/Drivers/USB/LowLevel/Template/Template_Endpoint_Control_W.c **** 			{
 2915               		.loc 4 29 0
 2916 0072 7601      		movw r14,r12
 2917               	.LVL263:
 2918               	.L323:
 2919 0074 C701      		movw r24,r14
 2920 0076 8C19      		sub r24,r12
 2921 0078 9D09      		sbc r25,r13
 2922 007a 800F      		add r24,r16
 2923 007c 911F      		adc r25,r17
 2924               	.LVL264:
 2925 007e E114      		cp r14,__zero_reg__
 2926 0080 F104      		cpc r15,__zero_reg__
 2927 0082 01F0      		breq .L333
  29:../../LUFA/Drivers/USB/LowLevel/Template/Template_Endpoint_Control_W.c **** 			{
 2928               		.loc 4 29 0 is_stmt 0 discriminator 1
 2929 0084 2830      		cpi r18,lo8(8)
 2930 0086 00F4      		brsh .L333
 2931               	.LVL265:
  31:../../LUFA/Drivers/USB/LowLevel/Template/Template_Endpoint_Control_W.c **** 				Length--;
 2932               		.loc 4 31 0 is_stmt 1
 2933 0088 2983      		std Y+1,r18
 2934 008a 0E94 0000 		call eeprom_read_byte
 2935               	.LVL266:
 2936               	.LBB453:
 2937               	.LBB454:
 562:../../LUFA/Drivers/USB/LowLevel/Endpoint.h **** 			}
 2938               		.loc 2 562 0
 2939 008e 8093 F100 		sts 241,r24
 2940               	.LBE454:
 2941               	.LBE453:
  32:../../LUFA/Drivers/USB/LowLevel/Template/Template_Endpoint_Control_W.c **** 				BytesInEndpoint++;
 2942               		.loc 4 32 0
 2943 0092 81E0      		ldi r24,1
 2944 0094 E81A      		sub r14,r24
 2945 0096 F108      		sbc r15,__zero_reg__
 2946               	.LVL267:
  33:../../LUFA/Drivers/USB/LowLevel/Template/Template_Endpoint_Control_W.c **** 			}
 2947               		.loc 4 33 0
 2948 0098 2981      		ldd r18,Y+1
 2949 009a 2F5F      		subi r18,lo8(-(1))
 2950               	.LVL268:
 2951 009c 00C0      		rjmp .L323
 2952               	.LVL269:
 2953               	.L333:
 2954 009e 8C01      		movw r16,r24
  36:../../LUFA/Drivers/USB/LowLevel/Template/Template_Endpoint_Control_W.c **** 			Endpoint_ClearIN();
 2955               		.loc 4 36 0
 2956 00a0 81E0      		ldi r24,lo8(1)
 2957               	.LVL270:
 2958 00a2 2830      		cpi r18,lo8(8)
 2959 00a4 01F0      		breq .L326
 2960 00a6 80E0      		ldi r24,0
 2961               	.L326:
 2962               	.LVL271:
 2963               	.LBB455:
 2964               	.LBB456:
 454:../../LUFA/Drivers/USB/LowLevel/Endpoint.h **** 				#else
 2965               		.loc 2 454 0
 2966 00a8 9091 E800 		lds r25,232
 2967 00ac 9E77      		andi r25,lo8(126)
 2968 00ae 9093 E800 		sts 232,r25
 2969 00b2 6701      		movw r12,r14
 2970 00b4 00C0      		rjmp .L322
 2971               	.LVL272:
 2972               	.L342:
 2973               	.LBE456:
 2974               	.LBE455:
 2975               	.LBE463:
  12:../../LUFA/Drivers/USB/LowLevel/Template/Template_Endpoint_Control_W.c **** 	{
 2976               		.loc 4 12 0 discriminator 1
 2977 00b6 8111      		cpse r24,__zero_reg__
 2978 00b8 00C0      		rjmp .L327
 2979 00ba 00C0      		rjmp .L339
 2980               	.LVL273:
 2981               	.L328:
  43:../../LUFA/Drivers/USB/LowLevel/Template/Template_Endpoint_Control_W.c **** 		  return ENDPOINT_RWCSTREAM_DeviceDisconnected;
 2982               		.loc 4 43 0
 2983 00bc 8EB3      		in r24,0x1e
 2984 00be 8823      		tst r24
 2985 00c0 01F0      		breq .L334
  45:../../LUFA/Drivers/USB/LowLevel/Template/Template_Endpoint_Control_W.c **** 		  return ENDPOINT_RWCSTREAM_BusSuspended;
 2986               		.loc 4 45 0
 2987 00c2 8EB3      		in r24,0x1e
 2988 00c4 8530      		cpi r24,lo8(5)
 2989 00c6 01F0      		breq .L335
 2990               	.L339:
 2991               	.LBB464:
 2992               	.LBB465:
 417:../../LUFA/Drivers/USB/LowLevel/Endpoint.h **** 			}
 2993               		.loc 2 417 0
 2994 00c8 8091 E800 		lds r24,232
 2995               	.LBE465:
 2996               	.LBE464:
  41:../../LUFA/Drivers/USB/LowLevel/Template/Template_Endpoint_Control_W.c **** 	{
 2997               		.loc 4 41 0
 2998 00cc 82FF      		sbrs r24,2
 2999 00ce 00C0      		rjmp .L328
  49:../../LUFA/Drivers/USB/LowLevel/Template/Template_Endpoint_Control_W.c **** }
 3000               		.loc 4 49 0
 3001 00d0 80E0      		ldi r24,0
 3002 00d2 00C0      		rjmp .L320
 3003               	.LVL274:
 3004               	.L330:
  15:../../LUFA/Drivers/USB/LowLevel/Template/Template_Endpoint_Control_W.c **** 
 3005               		.loc 4 15 0
 3006 00d4 81E0      		ldi r24,lo8(1)
 3007               	.LVL275:
 3008 00d6 00C0      		rjmp .L320
 3009               	.L334:
  21:../../LUFA/Drivers/USB/LowLevel/Template/Template_Endpoint_Control_W.c **** 		else if (USB_DeviceState == DEVICE_STATE_Suspended)
 3010               		.loc 4 21 0
 3011 00d8 82E0      		ldi r24,lo8(2)
 3012 00da 00C0      		rjmp .L320
 3013               	.L335:
  23:../../LUFA/Drivers/USB/LowLevel/Template/Template_Endpoint_Control_W.c **** 		  
 3014               		.loc 4 23 0
 3015 00dc 83E0      		ldi r24,lo8(3)
 3016               	.L320:
 3017               	/* epilogue start */
 3018               		.loc 4 50 0
 3019 00de 0F90      		pop __tmp_reg__
 3020 00e0 DF91      		pop r29
 3021 00e2 CF91      		pop r28
 3022 00e4 1F91      		pop r17
 3023 00e6 0F91      		pop r16
 3024               	.LVL276:
 3025 00e8 FF90      		pop r15
 3026 00ea EF90      		pop r14
 3027 00ec DF90      		pop r13
 3028 00ee CF90      		pop r12
 3029               	.LVL277:
 3030 00f0 0895      		ret
 3031               		.cfi_endproc
 3032               	.LFE85:
 3034               		.section	.text.Endpoint_Read_Control_Stream_LE,"ax",@progbits
 3035               	.global	Endpoint_Read_Control_Stream_LE
 3037               	Endpoint_Read_Control_Stream_LE:
 3038               	.LFB86:
 3039               		.file 5 "../../LUFA/Drivers/USB/LowLevel/Template/Template_Endpoint_Control_R.c"
   1:../../LUFA/Drivers/USB/LowLevel/Template/Template_Endpoint_Control_R.c **** uint8_t TEMPLATE_FUNC_NAME (void* Buffer,
   2:../../LUFA/Drivers/USB/LowLevel/Template/Template_Endpoint_Control_R.c ****                             uint16_t Length)
   3:../../LUFA/Drivers/USB/LowLevel/Template/Template_Endpoint_Control_R.c **** {
 3040               		.loc 5 3 0
 3041               		.cfi_startproc
 3042               	.LVL278:
 3043               	/* prologue: function */
 3044               	/* frame size = 0 */
 3045               	/* stack size = 0 */
 3046               	.L__stack_usage = 0
   4:../../LUFA/Drivers/USB/LowLevel/Template/Template_Endpoint_Control_R.c **** 	uint8_t* DataStream = ((uint8_t*)Buffer + TEMPLATE_BUFFER_OFFSET(Length));
   5:../../LUFA/Drivers/USB/LowLevel/Template/Template_Endpoint_Control_R.c **** 	
   6:../../LUFA/Drivers/USB/LowLevel/Template/Template_Endpoint_Control_R.c **** 	if (!(Length))
 3047               		.loc 5 6 0
 3048 0000 6115      		cp r22,__zero_reg__
 3049 0002 7105      		cpc r23,__zero_reg__
 3050 0004 01F4      		brne .L348
 3051               	.LVL279:
 3052               	.L350:
 3053               	.LBB466:
 3054               	.LBB467:
 469:../../LUFA/Drivers/USB/LowLevel/Endpoint.h **** 				#else
 3055               		.loc 2 469 0
 3056 0006 2091 E800 		lds r18,232
 3057 000a 2B77      		andi r18,lo8(123)
 3058 000c 2093 E800 		sts 232,r18
 3059               	.L348:
 3060               	.LBE467:
 3061               	.LBE466:
   7:../../LUFA/Drivers/USB/LowLevel/Template/Template_Endpoint_Control_R.c **** 	  Endpoint_ClearOUT();
   8:../../LUFA/Drivers/USB/LowLevel/Template/Template_Endpoint_Control_R.c **** 	
   9:../../LUFA/Drivers/USB/LowLevel/Template/Template_Endpoint_Control_R.c **** 	while (Length)
 3062               		.loc 5 9 0
 3063 0010 6115      		cp r22,__zero_reg__
 3064 0012 7105      		cpc r23,__zero_reg__
 3065 0014 01F0      		breq .L353
 3066               	.LBB468:
 3067               	.LBB469:
 429:../../LUFA/Drivers/USB/LowLevel/Endpoint.h **** 			}
 3068               		.loc 2 429 0
 3069 0016 2091 E800 		lds r18,232
 3070               	.LBE469:
 3071               	.LBE468:
  10:../../LUFA/Drivers/USB/LowLevel/Template/Template_Endpoint_Control_R.c **** 	{
  11:../../LUFA/Drivers/USB/LowLevel/Template/Template_Endpoint_Control_R.c **** 		if (Endpoint_IsSETUPReceived())
 3072               		.loc 5 11 0
 3073 001a 23FD      		sbrc r18,3
 3074 001c 00C0      		rjmp .L355
  12:../../LUFA/Drivers/USB/LowLevel/Template/Template_Endpoint_Control_R.c **** 		  return ENDPOINT_RWCSTREAM_HostAborted;
  13:../../LUFA/Drivers/USB/LowLevel/Template/Template_Endpoint_Control_R.c **** 
  14:../../LUFA/Drivers/USB/LowLevel/Template/Template_Endpoint_Control_R.c **** 		if (USB_DeviceState == DEVICE_STATE_Unattached)
 3075               		.loc 5 14 0
 3076 001e 2EB3      		in r18,0x1e
 3077 0020 2223      		tst r18
 3078 0022 01F0      		breq .L358
  15:../../LUFA/Drivers/USB/LowLevel/Template/Template_Endpoint_Control_R.c **** 		  return ENDPOINT_RWCSTREAM_DeviceDisconnected;
  16:../../LUFA/Drivers/USB/LowLevel/Template/Template_Endpoint_Control_R.c **** 		else if (USB_DeviceState == DEVICE_STATE_Suspended)
 3079               		.loc 5 16 0
 3080 0024 2EB3      		in r18,0x1e
 3081 0026 2530      		cpi r18,lo8(5)
 3082 0028 01F0      		breq .L359
 3083               	.LBB470:
 3084               	.LBB471:
 417:../../LUFA/Drivers/USB/LowLevel/Endpoint.h **** 			}
 3085               		.loc 2 417 0
 3086 002a 2091 E800 		lds r18,232
 3087               	.LBE471:
 3088               	.LBE470:
  17:../../LUFA/Drivers/USB/LowLevel/Template/Template_Endpoint_Control_R.c **** 		  return ENDPOINT_RWCSTREAM_BusSuspended;
  18:../../LUFA/Drivers/USB/LowLevel/Template/Template_Endpoint_Control_R.c **** 		  
  19:../../LUFA/Drivers/USB/LowLevel/Template/Template_Endpoint_Control_R.c **** 		if (Endpoint_IsOUTReceived())
 3089               		.loc 5 19 0
 3090 002e 22FF      		sbrs r18,2
 3091 0030 00C0      		rjmp .L348
 3092               	.L349:
 3093               	.LBB472:
 3094               	.LBB473:
 266:../../LUFA/Drivers/USB/LowLevel/Endpoint.h **** 				#endif
 3095               		.loc 2 266 0
 3096 0032 2091 F200 		lds r18,242
 3097               	.LBE473:
 3098               	.LBE472:
  20:../../LUFA/Drivers/USB/LowLevel/Template/Template_Endpoint_Control_R.c **** 		{
  21:../../LUFA/Drivers/USB/LowLevel/Template/Template_Endpoint_Control_R.c **** 			while (Length && Endpoint_BytesInEndpoint())
 3099               		.loc 5 21 0
 3100 0036 2223      		tst r18
 3101 0038 01F0      		breq .L350
  22:../../LUFA/Drivers/USB/LowLevel/Template/Template_Endpoint_Control_R.c **** 			{
  23:../../LUFA/Drivers/USB/LowLevel/Template/Template_Endpoint_Control_R.c **** 				TEMPLATE_TRANSFER_BYTE(DataStream);
 3102               		.loc 5 23 0
 3103 003a 0196      		adiw r24,1
 3104               	.LVL280:
 3105               	.LBB474:
 3106               	.LBB475:
 550:../../LUFA/Drivers/USB/LowLevel/Endpoint.h **** 			}
 3107               		.loc 2 550 0
 3108 003c 2091 F100 		lds r18,241
 3109 0040 FC01      		movw r30,r24
 3110 0042 3197      		sbiw r30,1
 3111               	.LBE475:
 3112               	.LBE474:
 3113               		.loc 5 23 0
 3114 0044 2083      		st Z,r18
  24:../../LUFA/Drivers/USB/LowLevel/Template/Template_Endpoint_Control_R.c **** 				Length--;
 3115               		.loc 5 24 0
 3116 0046 6150      		subi r22,1
 3117 0048 7109      		sbc r23,__zero_reg__
 3118               	.LVL281:
  21:../../LUFA/Drivers/USB/LowLevel/Template/Template_Endpoint_Control_R.c **** 			{
 3119               		.loc 5 21 0
 3120 004a 01F4      		brne .L349
 3121 004c 00C0      		rjmp .L350
 3122               	.LVL282:
 3123               	.L354:
  25:../../LUFA/Drivers/USB/LowLevel/Template/Template_Endpoint_Control_R.c **** 			}
  26:../../LUFA/Drivers/USB/LowLevel/Template/Template_Endpoint_Control_R.c **** 			
  27:../../LUFA/Drivers/USB/LowLevel/Template/Template_Endpoint_Control_R.c **** 			Endpoint_ClearOUT();
  28:../../LUFA/Drivers/USB/LowLevel/Template/Template_Endpoint_Control_R.c **** 		}		  
  29:../../LUFA/Drivers/USB/LowLevel/Template/Template_Endpoint_Control_R.c **** 	}
  30:../../LUFA/Drivers/USB/LowLevel/Template/Template_Endpoint_Control_R.c **** 	
  31:../../LUFA/Drivers/USB/LowLevel/Template/Template_Endpoint_Control_R.c **** 	while (!(Endpoint_IsINReady()))
  32:../../LUFA/Drivers/USB/LowLevel/Template/Template_Endpoint_Control_R.c **** 	{
  33:../../LUFA/Drivers/USB/LowLevel/Template/Template_Endpoint_Control_R.c **** 		if (USB_DeviceState == DEVICE_STATE_Unattached)
 3124               		.loc 5 33 0
 3125 004e 8EB3      		in r24,0x1e
 3126 0050 8823      		tst r24
 3127 0052 01F0      		breq .L358
  34:../../LUFA/Drivers/USB/LowLevel/Template/Template_Endpoint_Control_R.c **** 		  return ENDPOINT_RWCSTREAM_DeviceDisconnected;
  35:../../LUFA/Drivers/USB/LowLevel/Template/Template_Endpoint_Control_R.c **** 		else if (USB_DeviceState == DEVICE_STATE_Suspended)
 3128               		.loc 5 35 0
 3129 0054 8EB3      		in r24,0x1e
 3130 0056 8530      		cpi r24,lo8(5)
 3131 0058 01F0      		breq .L359
 3132               	.L353:
 3133               	.LBB476:
 3134               	.LBB477:
 405:../../LUFA/Drivers/USB/LowLevel/Endpoint.h **** 			}
 3135               		.loc 2 405 0
 3136 005a 8091 E800 		lds r24,232
 3137               	.LBE477:
 3138               	.LBE476:
  31:../../LUFA/Drivers/USB/LowLevel/Template/Template_Endpoint_Control_R.c **** 	{
 3139               		.loc 5 31 0
 3140 005e 80FF      		sbrs r24,0
 3141 0060 00C0      		rjmp .L354
  36:../../LUFA/Drivers/USB/LowLevel/Template/Template_Endpoint_Control_R.c **** 		  return ENDPOINT_RWCSTREAM_BusSuspended;
  37:../../LUFA/Drivers/USB/LowLevel/Template/Template_Endpoint_Control_R.c **** 	}
  38:../../LUFA/Drivers/USB/LowLevel/Template/Template_Endpoint_Control_R.c **** 	
  39:../../LUFA/Drivers/USB/LowLevel/Template/Template_Endpoint_Control_R.c **** 	return ENDPOINT_RWCSTREAM_NoError;
 3142               		.loc 5 39 0
 3143 0062 80E0      		ldi r24,0
 3144 0064 0895      		ret
 3145               	.LVL283:
 3146               	.L355:
  12:../../LUFA/Drivers/USB/LowLevel/Template/Template_Endpoint_Control_R.c **** 
 3147               		.loc 5 12 0
 3148 0066 81E0      		ldi r24,lo8(1)
 3149               	.LVL284:
 3150 0068 0895      		ret
 3151               	.L358:
  15:../../LUFA/Drivers/USB/LowLevel/Template/Template_Endpoint_Control_R.c **** 		else if (USB_DeviceState == DEVICE_STATE_Suspended)
 3152               		.loc 5 15 0
 3153 006a 82E0      		ldi r24,lo8(2)
 3154 006c 0895      		ret
 3155               	.L359:
  17:../../LUFA/Drivers/USB/LowLevel/Template/Template_Endpoint_Control_R.c **** 		  
 3156               		.loc 5 17 0
 3157 006e 83E0      		ldi r24,lo8(3)
  40:../../LUFA/Drivers/USB/LowLevel/Template/Template_Endpoint_Control_R.c **** }
 3158               		.loc 5 40 0
 3159 0070 0895      		ret
 3160               		.cfi_endproc
 3161               	.LFE86:
 3163               		.section	.text.Endpoint_Read_Control_EStream_LE,"ax",@progbits
 3164               	.global	Endpoint_Read_Control_EStream_LE
 3166               	Endpoint_Read_Control_EStream_LE:
 3167               	.LFB87:
   3:../../LUFA/Drivers/USB/LowLevel/Template/Template_Endpoint_Control_R.c **** 	uint8_t* DataStream = ((uint8_t*)Buffer + TEMPLATE_BUFFER_OFFSET(Length));
 3168               		.loc 5 3 0
 3169               		.cfi_startproc
 3170               	.LVL285:
 3171 0000 0F93      		push r16
 3172               	.LCFI87:
 3173               		.cfi_def_cfa_offset 3
 3174               		.cfi_offset 16, -2
 3175 0002 1F93      		push r17
 3176               	.LCFI88:
 3177               		.cfi_def_cfa_offset 4
 3178               		.cfi_offset 17, -3
 3179 0004 CF93      		push r28
 3180               	.LCFI89:
 3181               		.cfi_def_cfa_offset 5
 3182               		.cfi_offset 28, -4
 3183 0006 DF93      		push r29
 3184               	.LCFI90:
 3185               		.cfi_def_cfa_offset 6
 3186               		.cfi_offset 29, -5
 3187               	/* prologue: function */
 3188               	/* frame size = 0 */
 3189               	/* stack size = 4 */
 3190               	.L__stack_usage = 4
 3191 0008 EC01      		movw r28,r24
 3192 000a 8B01      		movw r16,r22
 3193               	.LVL286:
   6:../../LUFA/Drivers/USB/LowLevel/Template/Template_Endpoint_Control_R.c **** 	  Endpoint_ClearOUT();
 3194               		.loc 5 6 0
 3195 000c 672B      		or r22,r23
 3196 000e 01F4      		brne .L366
 3197               	.LVL287:
 3198               	.L368:
 3199               	.LBB478:
 3200               	.LBB479:
 469:../../LUFA/Drivers/USB/LowLevel/Endpoint.h **** 				#else
 3201               		.loc 2 469 0
 3202 0010 8091 E800 		lds r24,232
 3203 0014 8B77      		andi r24,lo8(123)
 3204 0016 8093 E800 		sts 232,r24
 3205               	.L366:
 3206               	.LBE479:
 3207               	.LBE478:
   9:../../LUFA/Drivers/USB/LowLevel/Template/Template_Endpoint_Control_R.c **** 	{
 3208               		.loc 5 9 0
 3209 001a 0115      		cp r16,__zero_reg__
 3210 001c 1105      		cpc r17,__zero_reg__
 3211 001e 01F0      		breq .L371
 3212               	.LBB480:
 3213               	.LBB481:
 429:../../LUFA/Drivers/USB/LowLevel/Endpoint.h **** 			}
 3214               		.loc 2 429 0
 3215 0020 8091 E800 		lds r24,232
 3216               	.LBE481:
 3217               	.LBE480:
  11:../../LUFA/Drivers/USB/LowLevel/Template/Template_Endpoint_Control_R.c **** 		  return ENDPOINT_RWCSTREAM_HostAborted;
 3218               		.loc 5 11 0
 3219 0024 83FD      		sbrc r24,3
 3220 0026 00C0      		rjmp .L373
  14:../../LUFA/Drivers/USB/LowLevel/Template/Template_Endpoint_Control_R.c **** 		  return ENDPOINT_RWCSTREAM_DeviceDisconnected;
 3221               		.loc 5 14 0
 3222 0028 8EB3      		in r24,0x1e
 3223 002a 8823      		tst r24
 3224 002c 01F0      		breq .L377
  16:../../LUFA/Drivers/USB/LowLevel/Template/Template_Endpoint_Control_R.c **** 		  return ENDPOINT_RWCSTREAM_BusSuspended;
 3225               		.loc 5 16 0
 3226 002e 8EB3      		in r24,0x1e
 3227 0030 8530      		cpi r24,lo8(5)
 3228 0032 01F0      		breq .L378
 3229               	.LBB482:
 3230               	.LBB483:
 417:../../LUFA/Drivers/USB/LowLevel/Endpoint.h **** 			}
 3231               		.loc 2 417 0
 3232 0034 8091 E800 		lds r24,232
 3233               	.LBE483:
 3234               	.LBE482:
  19:../../LUFA/Drivers/USB/LowLevel/Template/Template_Endpoint_Control_R.c **** 		{
 3235               		.loc 5 19 0
 3236 0038 82FF      		sbrs r24,2
 3237 003a 00C0      		rjmp .L366
 3238               	.L376:
  23:../../LUFA/Drivers/USB/LowLevel/Template/Template_Endpoint_Control_R.c **** 				Length--;
 3239               		.loc 5 23 0
 3240 003c CE01      		movw r24,r28
 3241               	.LVL288:
 3242               	.LBB484:
 3243               	.LBB485:
 266:../../LUFA/Drivers/USB/LowLevel/Endpoint.h **** 				#endif
 3244               		.loc 2 266 0
 3245 003e 2091 F200 		lds r18,242
 3246               	.LBE485:
 3247               	.LBE484:
  21:../../LUFA/Drivers/USB/LowLevel/Template/Template_Endpoint_Control_R.c **** 			{
 3248               		.loc 5 21 0
 3249 0042 2223      		tst r18
 3250 0044 01F0      		breq .L368
 3251               	.LBB486:
 3252               	.LBB487:
 550:../../LUFA/Drivers/USB/LowLevel/Endpoint.h **** 			}
 3253               		.loc 2 550 0
 3254 0046 6091 F100 		lds r22,241
 3255               	.LBE487:
 3256               	.LBE486:
  23:../../LUFA/Drivers/USB/LowLevel/Template/Template_Endpoint_Control_R.c **** 				Length--;
 3257               		.loc 5 23 0
 3258 004a 2196      		adiw r28,1
 3259               	.LVL289:
 3260 004c 0E94 0000 		call eeprom_update_byte
 3261               	.LVL290:
  24:../../LUFA/Drivers/USB/LowLevel/Template/Template_Endpoint_Control_R.c **** 			}
 3262               		.loc 5 24 0
 3263 0050 0150      		subi r16,1
 3264 0052 1109      		sbc r17,__zero_reg__
 3265               	.LVL291:
  21:../../LUFA/Drivers/USB/LowLevel/Template/Template_Endpoint_Control_R.c **** 			{
 3266               		.loc 5 21 0
 3267 0054 01F4      		brne .L376
 3268 0056 00C0      		rjmp .L368
 3269               	.L372:
  33:../../LUFA/Drivers/USB/LowLevel/Template/Template_Endpoint_Control_R.c **** 		  return ENDPOINT_RWCSTREAM_DeviceDisconnected;
 3270               		.loc 5 33 0
 3271 0058 8EB3      		in r24,0x1e
 3272 005a 8823      		tst r24
 3273 005c 01F0      		breq .L377
  35:../../LUFA/Drivers/USB/LowLevel/Template/Template_Endpoint_Control_R.c **** 		  return ENDPOINT_RWCSTREAM_BusSuspended;
 3274               		.loc 5 35 0
 3275 005e 8EB3      		in r24,0x1e
 3276 0060 8530      		cpi r24,lo8(5)
 3277 0062 01F0      		breq .L378
 3278               	.L371:
 3279               	.LBB488:
 3280               	.LBB489:
 405:../../LUFA/Drivers/USB/LowLevel/Endpoint.h **** 			}
 3281               		.loc 2 405 0
 3282 0064 8091 E800 		lds r24,232
 3283               	.LBE489:
 3284               	.LBE488:
  31:../../LUFA/Drivers/USB/LowLevel/Template/Template_Endpoint_Control_R.c **** 	{
 3285               		.loc 5 31 0
 3286 0068 80FF      		sbrs r24,0
 3287 006a 00C0      		rjmp .L372
  39:../../LUFA/Drivers/USB/LowLevel/Template/Template_Endpoint_Control_R.c **** }
 3288               		.loc 5 39 0
 3289 006c 80E0      		ldi r24,0
 3290 006e 00C0      		rjmp .L364
 3291               	.L373:
  12:../../LUFA/Drivers/USB/LowLevel/Template/Template_Endpoint_Control_R.c **** 
 3292               		.loc 5 12 0
 3293 0070 81E0      		ldi r24,lo8(1)
 3294 0072 00C0      		rjmp .L364
 3295               	.L377:
  15:../../LUFA/Drivers/USB/LowLevel/Template/Template_Endpoint_Control_R.c **** 		else if (USB_DeviceState == DEVICE_STATE_Suspended)
 3296               		.loc 5 15 0
 3297 0074 82E0      		ldi r24,lo8(2)
 3298 0076 00C0      		rjmp .L364
 3299               	.L378:
  17:../../LUFA/Drivers/USB/LowLevel/Template/Template_Endpoint_Control_R.c **** 		  
 3300               		.loc 5 17 0
 3301 0078 83E0      		ldi r24,lo8(3)
 3302               	.L364:
 3303               	/* epilogue start */
 3304               		.loc 5 40 0
 3305 007a DF91      		pop r29
 3306 007c CF91      		pop r28
 3307               	.LVL292:
 3308 007e 1F91      		pop r17
 3309 0080 0F91      		pop r16
 3310               	.LVL293:
 3311 0082 0895      		ret
 3312               		.cfi_endproc
 3313               	.LFE87:
 3315               		.section	.text.Endpoint_Read_Control_Stream_BE,"ax",@progbits
 3316               	.global	Endpoint_Read_Control_Stream_BE
 3318               	Endpoint_Read_Control_Stream_BE:
 3319               	.LFB88:
   3:../../LUFA/Drivers/USB/LowLevel/Template/Template_Endpoint_Control_R.c **** 	uint8_t* DataStream = ((uint8_t*)Buffer + TEMPLATE_BUFFER_OFFSET(Length));
 3320               		.loc 5 3 0
 3321               		.cfi_startproc
 3322               	.LVL294:
 3323               	/* prologue: function */
 3324               	/* frame size = 0 */
 3325               	/* stack size = 0 */
 3326               	.L__stack_usage = 0
   4:../../LUFA/Drivers/USB/LowLevel/Template/Template_Endpoint_Control_R.c **** 	
 3327               		.loc 5 4 0
 3328 0000 9B01      		movw r18,r22
 3329 0002 2150      		subi r18,1
 3330 0004 3109      		sbc r19,__zero_reg__
 3331 0006 820F      		add r24,r18
 3332 0008 931F      		adc r25,r19
 3333               	.LVL295:
   6:../../LUFA/Drivers/USB/LowLevel/Template/Template_Endpoint_Control_R.c **** 	  Endpoint_ClearOUT();
 3334               		.loc 5 6 0
 3335 000a 6115      		cp r22,__zero_reg__
 3336 000c 7105      		cpc r23,__zero_reg__
 3337 000e 01F4      		brne .L383
 3338               	.L385:
 3339               	.LBB490:
 3340               	.LBB491:
 469:../../LUFA/Drivers/USB/LowLevel/Endpoint.h **** 				#else
 3341               		.loc 2 469 0
 3342 0010 2091 E800 		lds r18,232
 3343 0014 2B77      		andi r18,lo8(123)
 3344 0016 2093 E800 		sts 232,r18
 3345               	.L383:
 3346               	.LBE491:
 3347               	.LBE490:
   9:../../LUFA/Drivers/USB/LowLevel/Template/Template_Endpoint_Control_R.c **** 	{
 3348               		.loc 5 9 0
 3349 001a 6115      		cp r22,__zero_reg__
 3350 001c 7105      		cpc r23,__zero_reg__
 3351 001e 01F0      		breq .L388
 3352               	.LBB492:
 3353               	.LBB493:
 429:../../LUFA/Drivers/USB/LowLevel/Endpoint.h **** 			}
 3354               		.loc 2 429 0
 3355 0020 2091 E800 		lds r18,232
 3356               	.LBE493:
 3357               	.LBE492:
  11:../../LUFA/Drivers/USB/LowLevel/Template/Template_Endpoint_Control_R.c **** 		  return ENDPOINT_RWCSTREAM_HostAborted;
 3358               		.loc 5 11 0
 3359 0024 23FD      		sbrc r18,3
 3360 0026 00C0      		rjmp .L390
  14:../../LUFA/Drivers/USB/LowLevel/Template/Template_Endpoint_Control_R.c **** 		  return ENDPOINT_RWCSTREAM_DeviceDisconnected;
 3361               		.loc 5 14 0
 3362 0028 2EB3      		in r18,0x1e
 3363 002a 2223      		tst r18
 3364 002c 01F0      		breq .L393
  16:../../LUFA/Drivers/USB/LowLevel/Template/Template_Endpoint_Control_R.c **** 		  return ENDPOINT_RWCSTREAM_BusSuspended;
 3365               		.loc 5 16 0
 3366 002e 2EB3      		in r18,0x1e
 3367 0030 2530      		cpi r18,lo8(5)
 3368 0032 01F0      		breq .L394
 3369               	.LBB494:
 3370               	.LBB495:
 417:../../LUFA/Drivers/USB/LowLevel/Endpoint.h **** 			}
 3371               		.loc 2 417 0
 3372 0034 2091 E800 		lds r18,232
 3373               	.LBE495:
 3374               	.LBE494:
  19:../../LUFA/Drivers/USB/LowLevel/Template/Template_Endpoint_Control_R.c **** 		{
 3375               		.loc 5 19 0
 3376 0038 22FF      		sbrs r18,2
 3377 003a 00C0      		rjmp .L383
 3378 003c FC01      		movw r30,r24
 3379               	.L384:
 3380               	.LBB496:
 3381               	.LBB497:
 266:../../LUFA/Drivers/USB/LowLevel/Endpoint.h **** 				#endif
 3382               		.loc 2 266 0
 3383 003e 2091 F200 		lds r18,242
 3384               	.LBE497:
 3385               	.LBE496:
  21:../../LUFA/Drivers/USB/LowLevel/Template/Template_Endpoint_Control_R.c **** 			{
 3386               		.loc 5 21 0
 3387 0042 2223      		tst r18
 3388 0044 01F0      		breq .L385
 3389 0046 0197      		sbiw r24,1
 3390               	.LVL296:
 3391               	.LBB498:
 3392               	.LBB499:
 550:../../LUFA/Drivers/USB/LowLevel/Endpoint.h **** 			}
 3393               		.loc 2 550 0
 3394 0048 2091 F100 		lds r18,241
 3395               	.LBE499:
 3396               	.LBE498:
  23:../../LUFA/Drivers/USB/LowLevel/Template/Template_Endpoint_Control_R.c **** 				Length--;
 3397               		.loc 5 23 0
 3398 004c 2083      		st Z,r18
  24:../../LUFA/Drivers/USB/LowLevel/Template/Template_Endpoint_Control_R.c **** 			}
 3399               		.loc 5 24 0
 3400 004e 6150      		subi r22,1
 3401 0050 7109      		sbc r23,__zero_reg__
 3402               	.LVL297:
 3403 0052 FC01      		movw r30,r24
  21:../../LUFA/Drivers/USB/LowLevel/Template/Template_Endpoint_Control_R.c **** 			{
 3404               		.loc 5 21 0
 3405 0054 01F4      		brne .L384
 3406 0056 00C0      		rjmp .L385
 3407               	.LVL298:
 3408               	.L389:
  33:../../LUFA/Drivers/USB/LowLevel/Template/Template_Endpoint_Control_R.c **** 		  return ENDPOINT_RWCSTREAM_DeviceDisconnected;
 3409               		.loc 5 33 0
 3410 0058 8EB3      		in r24,0x1e
 3411 005a 8823      		tst r24
 3412 005c 01F0      		breq .L393
  35:../../LUFA/Drivers/USB/LowLevel/Template/Template_Endpoint_Control_R.c **** 		  return ENDPOINT_RWCSTREAM_BusSuspended;
 3413               		.loc 5 35 0
 3414 005e 8EB3      		in r24,0x1e
 3415 0060 8530      		cpi r24,lo8(5)
 3416 0062 01F0      		breq .L394
 3417               	.L388:
 3418               	.LBB500:
 3419               	.LBB501:
 405:../../LUFA/Drivers/USB/LowLevel/Endpoint.h **** 			}
 3420               		.loc 2 405 0
 3421 0064 8091 E800 		lds r24,232
 3422               	.LBE501:
 3423               	.LBE500:
  31:../../LUFA/Drivers/USB/LowLevel/Template/Template_Endpoint_Control_R.c **** 	{
 3424               		.loc 5 31 0
 3425 0068 80FF      		sbrs r24,0
 3426 006a 00C0      		rjmp .L389
  39:../../LUFA/Drivers/USB/LowLevel/Template/Template_Endpoint_Control_R.c **** }
 3427               		.loc 5 39 0
 3428 006c 80E0      		ldi r24,0
 3429 006e 0895      		ret
 3430               	.LVL299:
 3431               	.L390:
  12:../../LUFA/Drivers/USB/LowLevel/Template/Template_Endpoint_Control_R.c **** 
 3432               		.loc 5 12 0
 3433 0070 81E0      		ldi r24,lo8(1)
 3434               	.LVL300:
 3435 0072 0895      		ret
 3436               	.L393:
  15:../../LUFA/Drivers/USB/LowLevel/Template/Template_Endpoint_Control_R.c **** 		else if (USB_DeviceState == DEVICE_STATE_Suspended)
 3437               		.loc 5 15 0
 3438 0074 82E0      		ldi r24,lo8(2)
 3439 0076 0895      		ret
 3440               	.L394:
  17:../../LUFA/Drivers/USB/LowLevel/Template/Template_Endpoint_Control_R.c **** 		  
 3441               		.loc 5 17 0
 3442 0078 83E0      		ldi r24,lo8(3)
 3443               		.loc 5 40 0
 3444 007a 0895      		ret
 3445               		.cfi_endproc
 3446               	.LFE88:
 3448               		.section	.text.Endpoint_Read_Control_EStream_BE,"ax",@progbits
 3449               	.global	Endpoint_Read_Control_EStream_BE
 3451               	Endpoint_Read_Control_EStream_BE:
 3452               	.LFB89:
   3:../../LUFA/Drivers/USB/LowLevel/Template/Template_Endpoint_Control_R.c **** 	uint8_t* DataStream = ((uint8_t*)Buffer + TEMPLATE_BUFFER_OFFSET(Length));
 3453               		.loc 5 3 0
 3454               		.cfi_startproc
 3455               	.LVL301:
 3456 0000 0F93      		push r16
 3457               	.LCFI91:
 3458               		.cfi_def_cfa_offset 3
 3459               		.cfi_offset 16, -2
 3460 0002 1F93      		push r17
 3461               	.LCFI92:
 3462               		.cfi_def_cfa_offset 4
 3463               		.cfi_offset 17, -3
 3464 0004 CF93      		push r28
 3465               	.LCFI93:
 3466               		.cfi_def_cfa_offset 5
 3467               		.cfi_offset 28, -4
 3468 0006 DF93      		push r29
 3469               	.LCFI94:
 3470               		.cfi_def_cfa_offset 6
 3471               		.cfi_offset 29, -5
 3472               	/* prologue: function */
 3473               	/* frame size = 0 */
 3474               	/* stack size = 4 */
 3475               	.L__stack_usage = 4
 3476 0008 8B01      		movw r16,r22
   4:../../LUFA/Drivers/USB/LowLevel/Template/Template_Endpoint_Control_R.c **** 	
 3477               		.loc 5 4 0
 3478 000a EB01      		movw r28,r22
 3479 000c 2197      		sbiw r28,1
 3480 000e C80F      		add r28,r24
 3481 0010 D91F      		adc r29,r25
 3482               	.LVL302:
   6:../../LUFA/Drivers/USB/LowLevel/Template/Template_Endpoint_Control_R.c **** 	  Endpoint_ClearOUT();
 3483               		.loc 5 6 0
 3484 0012 672B      		or r22,r23
 3485 0014 01F4      		brne .L405
 3486               	.LVL303:
 3487               	.L407:
 3488               	.LBB502:
 3489               	.LBB503:
 469:../../LUFA/Drivers/USB/LowLevel/Endpoint.h **** 				#else
 3490               		.loc 2 469 0
 3491 0016 8091 E800 		lds r24,232
 3492 001a 8B77      		andi r24,lo8(123)
 3493 001c 8093 E800 		sts 232,r24
 3494               	.L405:
 3495               	.LBE503:
 3496               	.LBE502:
   9:../../LUFA/Drivers/USB/LowLevel/Template/Template_Endpoint_Control_R.c **** 	{
 3497               		.loc 5 9 0
 3498 0020 0115      		cp r16,__zero_reg__
 3499 0022 1105      		cpc r17,__zero_reg__
 3500 0024 01F0      		breq .L410
 3501               	.LBB504:
 3502               	.LBB505:
 429:../../LUFA/Drivers/USB/LowLevel/Endpoint.h **** 			}
 3503               		.loc 2 429 0
 3504 0026 8091 E800 		lds r24,232
 3505               	.LBE505:
 3506               	.LBE504:
  11:../../LUFA/Drivers/USB/LowLevel/Template/Template_Endpoint_Control_R.c **** 		  return ENDPOINT_RWCSTREAM_HostAborted;
 3507               		.loc 5 11 0
 3508 002a 83FD      		sbrc r24,3
 3509 002c 00C0      		rjmp .L412
  14:../../LUFA/Drivers/USB/LowLevel/Template/Template_Endpoint_Control_R.c **** 		  return ENDPOINT_RWCSTREAM_DeviceDisconnected;
 3510               		.loc 5 14 0
 3511 002e 8EB3      		in r24,0x1e
 3512 0030 8823      		tst r24
 3513 0032 01F0      		breq .L416
  16:../../LUFA/Drivers/USB/LowLevel/Template/Template_Endpoint_Control_R.c **** 		  return ENDPOINT_RWCSTREAM_BusSuspended;
 3514               		.loc 5 16 0
 3515 0034 8EB3      		in r24,0x1e
 3516 0036 8530      		cpi r24,lo8(5)
 3517 0038 01F0      		breq .L417
 3518               	.LBB506:
 3519               	.LBB507:
 417:../../LUFA/Drivers/USB/LowLevel/Endpoint.h **** 			}
 3520               		.loc 2 417 0
 3521 003a 8091 E800 		lds r24,232
 3522               	.LBE507:
 3523               	.LBE506:
  19:../../LUFA/Drivers/USB/LowLevel/Template/Template_Endpoint_Control_R.c **** 		{
 3524               		.loc 5 19 0
 3525 003e 82FF      		sbrs r24,2
 3526 0040 00C0      		rjmp .L405
 3527               	.L415:
  23:../../LUFA/Drivers/USB/LowLevel/Template/Template_Endpoint_Control_R.c **** 				Length--;
 3528               		.loc 5 23 0
 3529 0042 CE01      		movw r24,r28
 3530               	.LVL304:
 3531               	.LBB508:
 3532               	.LBB509:
 266:../../LUFA/Drivers/USB/LowLevel/Endpoint.h **** 				#endif
 3533               		.loc 2 266 0
 3534 0044 2091 F200 		lds r18,242
 3535               	.LBE509:
 3536               	.LBE508:
  21:../../LUFA/Drivers/USB/LowLevel/Template/Template_Endpoint_Control_R.c **** 			{
 3537               		.loc 5 21 0
 3538 0048 2223      		tst r18
 3539 004a 01F0      		breq .L407
 3540               	.LBB510:
 3541               	.LBB511:
 550:../../LUFA/Drivers/USB/LowLevel/Endpoint.h **** 			}
 3542               		.loc 2 550 0
 3543 004c 6091 F100 		lds r22,241
 3544               	.LBE511:
 3545               	.LBE510:
  23:../../LUFA/Drivers/USB/LowLevel/Template/Template_Endpoint_Control_R.c **** 				Length--;
 3546               		.loc 5 23 0
 3547 0050 2197      		sbiw r28,1
 3548               	.LVL305:
 3549 0052 0E94 0000 		call eeprom_update_byte
 3550               	.LVL306:
  24:../../LUFA/Drivers/USB/LowLevel/Template/Template_Endpoint_Control_R.c **** 			}
 3551               		.loc 5 24 0
 3552 0056 0150      		subi r16,1
 3553 0058 1109      		sbc r17,__zero_reg__
 3554               	.LVL307:
  21:../../LUFA/Drivers/USB/LowLevel/Template/Template_Endpoint_Control_R.c **** 			{
 3555               		.loc 5 21 0
 3556 005a 01F4      		brne .L415
 3557 005c 00C0      		rjmp .L407
 3558               	.L411:
  33:../../LUFA/Drivers/USB/LowLevel/Template/Template_Endpoint_Control_R.c **** 		  return ENDPOINT_RWCSTREAM_DeviceDisconnected;
 3559               		.loc 5 33 0
 3560 005e 8EB3      		in r24,0x1e
 3561 0060 8823      		tst r24
 3562 0062 01F0      		breq .L416
  35:../../LUFA/Drivers/USB/LowLevel/Template/Template_Endpoint_Control_R.c **** 		  return ENDPOINT_RWCSTREAM_BusSuspended;
 3563               		.loc 5 35 0
 3564 0064 8EB3      		in r24,0x1e
 3565 0066 8530      		cpi r24,lo8(5)
 3566 0068 01F0      		breq .L417
 3567               	.L410:
 3568               	.LBB512:
 3569               	.LBB513:
 405:../../LUFA/Drivers/USB/LowLevel/Endpoint.h **** 			}
 3570               		.loc 2 405 0
 3571 006a 8091 E800 		lds r24,232
 3572               	.LBE513:
 3573               	.LBE512:
  31:../../LUFA/Drivers/USB/LowLevel/Template/Template_Endpoint_Control_R.c **** 	{
 3574               		.loc 5 31 0
 3575 006e 80FF      		sbrs r24,0
 3576 0070 00C0      		rjmp .L411
  39:../../LUFA/Drivers/USB/LowLevel/Template/Template_Endpoint_Control_R.c **** }
 3577               		.loc 5 39 0
 3578 0072 80E0      		ldi r24,0
 3579 0074 00C0      		rjmp .L403
 3580               	.L412:
  12:../../LUFA/Drivers/USB/LowLevel/Template/Template_Endpoint_Control_R.c **** 
 3581               		.loc 5 12 0
 3582 0076 81E0      		ldi r24,lo8(1)
 3583 0078 00C0      		rjmp .L403
 3584               	.L416:
  15:../../LUFA/Drivers/USB/LowLevel/Template/Template_Endpoint_Control_R.c **** 		else if (USB_DeviceState == DEVICE_STATE_Suspended)
 3585               		.loc 5 15 0
 3586 007a 82E0      		ldi r24,lo8(2)
 3587 007c 00C0      		rjmp .L403
 3588               	.L417:
  17:../../LUFA/Drivers/USB/LowLevel/Template/Template_Endpoint_Control_R.c **** 		  
 3589               		.loc 5 17 0
 3590 007e 83E0      		ldi r24,lo8(3)
 3591               	.L403:
 3592               	/* epilogue start */
 3593               		.loc 5 40 0
 3594 0080 DF91      		pop r29
 3595 0082 CF91      		pop r28
 3596               	.LVL308:
 3597 0084 1F91      		pop r17
 3598 0086 0F91      		pop r16
 3599               	.LVL309:
 3600 0088 0895      		ret
 3601               		.cfi_endproc
 3602               	.LFE89:
 3604               		.text
 3605               	.Letext0:
 3606               		.file 6 "c:\\program files (x86)\\arduino\\hardware\\tools\\avr\\avr\\include\\stdint.h"
 3607               		.file 7 "../../LUFA/Drivers/USB/LowLevel/../HighLevel/../LowLevel/../HighLevel/StdRequestType.h"
 3608               		.file 8 "../../LUFA/Drivers/USB/LowLevel/../HighLevel/../LowLevel/Device.h"
 3609               		.file 9 "../../LUFA/Drivers/USB/LowLevel/../HighLevel/StreamCallbacks.h"
 3610               		.file 10 "../../LUFA/Drivers/USB/LowLevel/../HighLevel/USBTask.h"
 3611               		.file 11 "c:\\program files (x86)\\arduino\\hardware\\tools\\avr\\avr\\include\\avr\\eeprom.h"
DEFINED SYMBOLS
                            *ABS*:00000000 Endpoint.c
C:\Users\Julien\AppData\Local\Temp\ccjlbv5f.s:2      *ABS*:0000003e __SP_H__
C:\Users\Julien\AppData\Local\Temp\ccjlbv5f.s:3      *ABS*:0000003d __SP_L__
C:\Users\Julien\AppData\Local\Temp\ccjlbv5f.s:4      *ABS*:0000003f __SREG__
C:\Users\Julien\AppData\Local\Temp\ccjlbv5f.s:5      *ABS*:00000000 __tmp_reg__
C:\Users\Julien\AppData\Local\Temp\ccjlbv5f.s:6      *ABS*:00000001 __zero_reg__
C:\Users\Julien\AppData\Local\Temp\ccjlbv5f.s:13     .text.Endpoint_BytesToEPSizeMaskDynamic:00000000 Endpoint_BytesToEPSizeMaskDynamic
C:\Users\Julien\AppData\Local\Temp\ccjlbv5f.s:61     .text.Endpoint_ConfigureEndpoint_Prv:00000000 Endpoint_ConfigureEndpoint_Prv
C:\Users\Julien\AppData\Local\Temp\ccjlbv5f.s:113    .text.Endpoint_ClearEndpoints:00000000 Endpoint_ClearEndpoints
C:\Users\Julien\AppData\Local\Temp\ccjlbv5f.s:164    .text.Endpoint_ClearStatusStage:00000000 Endpoint_ClearStatusStage
C:\Users\Julien\AppData\Local\Temp\ccjlbv5f.s:232    .text.Endpoint_WaitUntilReady:00000000 Endpoint_WaitUntilReady
C:\Users\Julien\AppData\Local\Temp\ccjlbv5f.s:340    .text.Endpoint_Discard_Stream:00000000 Endpoint_Discard_Stream
C:\Users\Julien\AppData\Local\Temp\ccjlbv5f.s:439    .text.Endpoint_Write_Stream_LE:00000000 Endpoint_Write_Stream_LE
C:\Users\Julien\AppData\Local\Temp\ccjlbv5f.s:561    .text.Endpoint_Write_PStream_LE:00000000 Endpoint_Write_PStream_LE
C:\Users\Julien\AppData\Local\Temp\ccjlbv5f.s:694    .text.Endpoint_Write_EStream_LE:00000000 Endpoint_Write_EStream_LE
C:\Users\Julien\AppData\Local\Temp\ccjlbv5f.s:827    .text.Endpoint_Write_Stream_BE:00000000 Endpoint_Write_Stream_BE
C:\Users\Julien\AppData\Local\Temp\ccjlbv5f.s:963    .text.Endpoint_Write_EStream_BE:00000000 Endpoint_Write_EStream_BE
C:\Users\Julien\AppData\Local\Temp\ccjlbv5f.s:1113   .text.Endpoint_Write_PStream_BE:00000000 Endpoint_Write_PStream_BE
C:\Users\Julien\AppData\Local\Temp\ccjlbv5f.s:1261   .text.Endpoint_Read_Stream_LE:00000000 Endpoint_Read_Stream_LE
C:\Users\Julien\AppData\Local\Temp\ccjlbv5f.s:1380   .text.Endpoint_Read_EStream_LE:00000000 Endpoint_Read_EStream_LE
C:\Users\Julien\AppData\Local\Temp\ccjlbv5f.s:1513   .text.Endpoint_Read_Stream_BE:00000000 Endpoint_Read_Stream_BE
C:\Users\Julien\AppData\Local\Temp\ccjlbv5f.s:1647   .text.Endpoint_Read_EStream_BE:00000000 Endpoint_Read_EStream_BE
C:\Users\Julien\AppData\Local\Temp\ccjlbv5f.s:1797   .text.Endpoint_Write_Control_Stream_LE:00000000 Endpoint_Write_Control_Stream_LE
C:\Users\Julien\AppData\Local\Temp\ccjlbv5f.s:1982   .text.Endpoint_Write_Control_PStream_LE:00000000 Endpoint_Write_Control_PStream_LE
C:\Users\Julien\AppData\Local\Temp\ccjlbv5f.s:2178   .text.Endpoint_Write_Control_EStream_LE:00000000 Endpoint_Write_Control_EStream_LE
C:\Users\Julien\AppData\Local\Temp\ccjlbv5f.s:2390   .text.Endpoint_Write_Control_Stream_BE:00000000 Endpoint_Write_Control_Stream_BE
C:\Users\Julien\AppData\Local\Temp\ccjlbv5f.s:2582   .text.Endpoint_Write_Control_PStream_BE:00000000 Endpoint_Write_Control_PStream_BE
C:\Users\Julien\AppData\Local\Temp\ccjlbv5f.s:2784   .text.Endpoint_Write_Control_EStream_BE:00000000 Endpoint_Write_Control_EStream_BE
C:\Users\Julien\AppData\Local\Temp\ccjlbv5f.s:3037   .text.Endpoint_Read_Control_Stream_LE:00000000 Endpoint_Read_Control_Stream_LE
C:\Users\Julien\AppData\Local\Temp\ccjlbv5f.s:3166   .text.Endpoint_Read_Control_EStream_LE:00000000 Endpoint_Read_Control_EStream_LE
C:\Users\Julien\AppData\Local\Temp\ccjlbv5f.s:3318   .text.Endpoint_Read_Control_Stream_BE:00000000 Endpoint_Read_Control_Stream_BE
C:\Users\Julien\AppData\Local\Temp\ccjlbv5f.s:3451   .text.Endpoint_Read_Control_EStream_BE:00000000 Endpoint_Read_Control_EStream_BE

UNDEFINED SYMBOLS
USB_ControlRequest
eeprom_read_byte
eeprom_update_byte
